Archive member included to satisfy reference by file (symbol)

/mnt/c/SerranonOS/UEFI/vUDK2017/Build/DuetPkgX64/DEBUG_GCC5/X64/MdePkg/Library/BaseDebugPrintErrorLevelLib/BaseDebugPrintErrorLevelLib/OUTPUT/BaseDebugPrintErrorLevelLib.lib(BaseDebugPrintErrorLevelLib.obj)
                              (--whole-archive)
/mnt/c/SerranonOS/UEFI/vUDK2017/Build/DuetPkgX64/DEBUG_GCC5/X64/MdePkg/Library/BasePcdLibNull/BasePcdLibNull/OUTPUT/BasePcdLibNull.lib(PcdLib.obj)
                              (--whole-archive)
/mnt/c/SerranonOS/UEFI/vUDK2017/Build/DuetPkgX64/DEBUG_GCC5/X64/MdeModulePkg/Library/PeiDxeDebugLibReportStatusCode/PeiDxeDebugLibReportStatusCode/OUTPUT/PeiDxeDebugLibReportStatusCode.lib(DebugLib.obj)
                              (--whole-archive)
/mnt/c/SerranonOS/UEFI/vUDK2017/Build/DuetPkgX64/DEBUG_GCC5/X64/MdePkg/Library/BaseLib/BaseLib/OUTPUT/BaseLib.lib(CheckSum.obj)
                              (--whole-archive)
/mnt/c/SerranonOS/UEFI/vUDK2017/Build/DuetPkgX64/DEBUG_GCC5/X64/MdePkg/Library/BaseLib/BaseLib/OUTPUT/BaseLib.lib(SwitchStack.obj)
                              (--whole-archive)
/mnt/c/SerranonOS/UEFI/vUDK2017/Build/DuetPkgX64/DEBUG_GCC5/X64/MdePkg/Library/BaseLib/BaseLib/OUTPUT/BaseLib.lib(SwapBytes64.obj)
                              (--whole-archive)
/mnt/c/SerranonOS/UEFI/vUDK2017/Build/DuetPkgX64/DEBUG_GCC5/X64/MdePkg/Library/BaseLib/BaseLib/OUTPUT/BaseLib.lib(SwapBytes32.obj)
                              (--whole-archive)
/mnt/c/SerranonOS/UEFI/vUDK2017/Build/DuetPkgX64/DEBUG_GCC5/X64/MdePkg/Library/BaseLib/BaseLib/OUTPUT/BaseLib.lib(SwapBytes16.obj)
                              (--whole-archive)
/mnt/c/SerranonOS/UEFI/vUDK2017/Build/DuetPkgX64/DEBUG_GCC5/X64/MdePkg/Library/BaseLib/BaseLib/OUTPUT/BaseLib.lib(LongJump.obj)
                              (--whole-archive)
/mnt/c/SerranonOS/UEFI/vUDK2017/Build/DuetPkgX64/DEBUG_GCC5/X64/MdePkg/Library/BaseLib/BaseLib/OUTPUT/BaseLib.lib(SetJump.obj)
                              (--whole-archive)
/mnt/c/SerranonOS/UEFI/vUDK2017/Build/DuetPkgX64/DEBUG_GCC5/X64/MdePkg/Library/BaseLib/BaseLib/OUTPUT/BaseLib.lib(RShiftU64.obj)
                              (--whole-archive)
/mnt/c/SerranonOS/UEFI/vUDK2017/Build/DuetPkgX64/DEBUG_GCC5/X64/MdePkg/Library/BaseLib/BaseLib/OUTPUT/BaseLib.lib(RRotU64.obj)
                              (--whole-archive)
/mnt/c/SerranonOS/UEFI/vUDK2017/Build/DuetPkgX64/DEBUG_GCC5/X64/MdePkg/Library/BaseLib/BaseLib/OUTPUT/BaseLib.lib(RRotU32.obj)
                              (--whole-archive)
/mnt/c/SerranonOS/UEFI/vUDK2017/Build/DuetPkgX64/DEBUG_GCC5/X64/MdePkg/Library/BaseLib/BaseLib/OUTPUT/BaseLib.lib(MultU64x64.obj)
                              (--whole-archive)
/mnt/c/SerranonOS/UEFI/vUDK2017/Build/DuetPkgX64/DEBUG_GCC5/X64/MdePkg/Library/BaseLib/BaseLib/OUTPUT/BaseLib.lib(MultU64x32.obj)
                              (--whole-archive)
/mnt/c/SerranonOS/UEFI/vUDK2017/Build/DuetPkgX64/DEBUG_GCC5/X64/MdePkg/Library/BaseLib/BaseLib/OUTPUT/BaseLib.lib(MultS64x64.obj)
                              (--whole-archive)
/mnt/c/SerranonOS/UEFI/vUDK2017/Build/DuetPkgX64/DEBUG_GCC5/X64/MdePkg/Library/BaseLib/BaseLib/OUTPUT/BaseLib.lib(ModU64x32.obj)
                              (--whole-archive)
/mnt/c/SerranonOS/UEFI/vUDK2017/Build/DuetPkgX64/DEBUG_GCC5/X64/MdePkg/Library/BaseLib/BaseLib/OUTPUT/BaseLib.lib(LShiftU64.obj)
                              (--whole-archive)
/mnt/c/SerranonOS/UEFI/vUDK2017/Build/DuetPkgX64/DEBUG_GCC5/X64/MdePkg/Library/BaseLib/BaseLib/OUTPUT/BaseLib.lib(LRotU64.obj)
                              (--whole-archive)
/mnt/c/SerranonOS/UEFI/vUDK2017/Build/DuetPkgX64/DEBUG_GCC5/X64/MdePkg/Library/BaseLib/BaseLib/OUTPUT/BaseLib.lib(LRotU32.obj)
                              (--whole-archive)
/mnt/c/SerranonOS/UEFI/vUDK2017/Build/DuetPkgX64/DEBUG_GCC5/X64/MdePkg/Library/BaseLib/BaseLib/OUTPUT/BaseLib.lib(LowBitSet64.obj)
                              (--whole-archive)
/mnt/c/SerranonOS/UEFI/vUDK2017/Build/DuetPkgX64/DEBUG_GCC5/X64/MdePkg/Library/BaseLib/BaseLib/OUTPUT/BaseLib.lib(LowBitSet32.obj)
                              (--whole-archive)
/mnt/c/SerranonOS/UEFI/vUDK2017/Build/DuetPkgX64/DEBUG_GCC5/X64/MdePkg/Library/BaseLib/BaseLib/OUTPUT/BaseLib.lib(HighBitSet64.obj)
                              (--whole-archive)
/mnt/c/SerranonOS/UEFI/vUDK2017/Build/DuetPkgX64/DEBUG_GCC5/X64/MdePkg/Library/BaseLib/BaseLib/OUTPUT/BaseLib.lib(HighBitSet32.obj)
                              (--whole-archive)
/mnt/c/SerranonOS/UEFI/vUDK2017/Build/DuetPkgX64/DEBUG_GCC5/X64/MdePkg/Library/BaseLib/BaseLib/OUTPUT/BaseLib.lib(GetPowerOfTwo64.obj)
                              (--whole-archive)
/mnt/c/SerranonOS/UEFI/vUDK2017/Build/DuetPkgX64/DEBUG_GCC5/X64/MdePkg/Library/BaseLib/BaseLib/OUTPUT/BaseLib.lib(GetPowerOfTwo32.obj)
                              (--whole-archive)
/mnt/c/SerranonOS/UEFI/vUDK2017/Build/DuetPkgX64/DEBUG_GCC5/X64/MdePkg/Library/BaseLib/BaseLib/OUTPUT/BaseLib.lib(DivU64x64Remainder.obj)
                              (--whole-archive)
/mnt/c/SerranonOS/UEFI/vUDK2017/Build/DuetPkgX64/DEBUG_GCC5/X64/MdePkg/Library/BaseLib/BaseLib/OUTPUT/BaseLib.lib(DivU64x32Remainder.obj)
                              (--whole-archive)
/mnt/c/SerranonOS/UEFI/vUDK2017/Build/DuetPkgX64/DEBUG_GCC5/X64/MdePkg/Library/BaseLib/BaseLib/OUTPUT/BaseLib.lib(DivU64x32.obj)
                              (--whole-archive)
/mnt/c/SerranonOS/UEFI/vUDK2017/Build/DuetPkgX64/DEBUG_GCC5/X64/MdePkg/Library/BaseLib/BaseLib/OUTPUT/BaseLib.lib(DivS64x64Remainder.obj)
                              (--whole-archive)
/mnt/c/SerranonOS/UEFI/vUDK2017/Build/DuetPkgX64/DEBUG_GCC5/X64/MdePkg/Library/BaseLib/BaseLib/OUTPUT/BaseLib.lib(ARShiftU64.obj)
                              (--whole-archive)
/mnt/c/SerranonOS/UEFI/vUDK2017/Build/DuetPkgX64/DEBUG_GCC5/X64/MdePkg/Library/BaseLib/BaseLib/OUTPUT/BaseLib.lib(BitField.obj)
                              (--whole-archive)
/mnt/c/SerranonOS/UEFI/vUDK2017/Build/DuetPkgX64/DEBUG_GCC5/X64/MdePkg/Library/BaseLib/BaseLib/OUTPUT/BaseLib.lib(CpuDeadLoop.obj)
                              (--whole-archive)
/mnt/c/SerranonOS/UEFI/vUDK2017/Build/DuetPkgX64/DEBUG_GCC5/X64/MdePkg/Library/BaseLib/BaseLib/OUTPUT/BaseLib.lib(Cpu.obj)
                              (--whole-archive)
/mnt/c/SerranonOS/UEFI/vUDK2017/Build/DuetPkgX64/DEBUG_GCC5/X64/MdePkg/Library/BaseLib/BaseLib/OUTPUT/BaseLib.lib(LinkedList.obj)
                              (--whole-archive)
/mnt/c/SerranonOS/UEFI/vUDK2017/Build/DuetPkgX64/DEBUG_GCC5/X64/MdePkg/Library/BaseLib/BaseLib/OUTPUT/BaseLib.lib(SafeString.obj)
                              (--whole-archive)
/mnt/c/SerranonOS/UEFI/vUDK2017/Build/DuetPkgX64/DEBUG_GCC5/X64/MdePkg/Library/BaseLib/BaseLib/OUTPUT/BaseLib.lib(String.obj)
                              (--whole-archive)
/mnt/c/SerranonOS/UEFI/vUDK2017/Build/DuetPkgX64/DEBUG_GCC5/X64/MdePkg/Library/BaseLib/BaseLib/OUTPUT/BaseLib.lib(FilePaths.obj)
                              (--whole-archive)
/mnt/c/SerranonOS/UEFI/vUDK2017/Build/DuetPkgX64/DEBUG_GCC5/X64/MdePkg/Library/BaseLib/BaseLib/OUTPUT/BaseLib.lib(Thunk16.obj)
                              (--whole-archive)
/mnt/c/SerranonOS/UEFI/vUDK2017/Build/DuetPkgX64/DEBUG_GCC5/X64/MdePkg/Library/BaseLib/BaseLib/OUTPUT/BaseLib.lib(WriteTr.obj)
                              (--whole-archive)
/mnt/c/SerranonOS/UEFI/vUDK2017/Build/DuetPkgX64/DEBUG_GCC5/X64/MdePkg/Library/BaseLib/BaseLib/OUTPUT/BaseLib.lib(Non-existing.obj)
                              (--whole-archive)
/mnt/c/SerranonOS/UEFI/vUDK2017/Build/DuetPkgX64/DEBUG_GCC5/X64/MdePkg/Library/BaseLib/BaseLib/OUTPUT/BaseLib.lib(Math64.obj)
                              (--whole-archive)
/mnt/c/SerranonOS/UEFI/vUDK2017/Build/DuetPkgX64/DEBUG_GCC5/X64/MdePkg/Library/BaseLib/BaseLib/OUTPUT/BaseLib.lib(Unaligned.obj)
                              (--whole-archive)
/mnt/c/SerranonOS/UEFI/vUDK2017/Build/DuetPkgX64/DEBUG_GCC5/X64/MdePkg/Library/BaseLib/BaseLib/OUTPUT/BaseLib.lib(X86WriteIdtr.obj)
                              (--whole-archive)
/mnt/c/SerranonOS/UEFI/vUDK2017/Build/DuetPkgX64/DEBUG_GCC5/X64/MdePkg/Library/BaseLib/BaseLib/OUTPUT/BaseLib.lib(X86WriteGdtr.obj)
                              (--whole-archive)
/mnt/c/SerranonOS/UEFI/vUDK2017/Build/DuetPkgX64/DEBUG_GCC5/X64/MdePkg/Library/BaseLib/BaseLib/OUTPUT/BaseLib.lib(X86Thunk.obj)
                              (--whole-archive)
/mnt/c/SerranonOS/UEFI/vUDK2017/Build/DuetPkgX64/DEBUG_GCC5/X64/MdePkg/Library/BaseLib/BaseLib/OUTPUT/BaseLib.lib(X86ReadIdtr.obj)
                              (--whole-archive)
/mnt/c/SerranonOS/UEFI/vUDK2017/Build/DuetPkgX64/DEBUG_GCC5/X64/MdePkg/Library/BaseLib/BaseLib/OUTPUT/BaseLib.lib(X86ReadGdtr.obj)
                              (--whole-archive)
/mnt/c/SerranonOS/UEFI/vUDK2017/Build/DuetPkgX64/DEBUG_GCC5/X64/MdePkg/Library/BaseLib/BaseLib/OUTPUT/BaseLib.lib(X86Msr.obj)
                              (--whole-archive)
/mnt/c/SerranonOS/UEFI/vUDK2017/Build/DuetPkgX64/DEBUG_GCC5/X64/MdePkg/Library/BaseLib/BaseLib/OUTPUT/BaseLib.lib(X86GetInterruptState.obj)
                              (--whole-archive)
/mnt/c/SerranonOS/UEFI/vUDK2017/Build/DuetPkgX64/DEBUG_GCC5/X64/MdePkg/Library/BaseLib/BaseLib/OUTPUT/BaseLib.lib(X86FxSave.obj)
                              (--whole-archive)
/mnt/c/SerranonOS/UEFI/vUDK2017/Build/DuetPkgX64/DEBUG_GCC5/X64/MdePkg/Library/BaseLib/BaseLib/OUTPUT/BaseLib.lib(X86FxRestore.obj)
                              (--whole-archive)
/mnt/c/SerranonOS/UEFI/vUDK2017/Build/DuetPkgX64/DEBUG_GCC5/X64/MdePkg/Library/BaseLib/BaseLib/OUTPUT/BaseLib.lib(X86EnablePaging64.obj)
                              (--whole-archive)
/mnt/c/SerranonOS/UEFI/vUDK2017/Build/DuetPkgX64/DEBUG_GCC5/X64/MdePkg/Library/BaseLib/BaseLib/OUTPUT/BaseLib.lib(X86EnablePaging32.obj)
                              (--whole-archive)
/mnt/c/SerranonOS/UEFI/vUDK2017/Build/DuetPkgX64/DEBUG_GCC5/X64/MdePkg/Library/BaseLib/BaseLib/OUTPUT/BaseLib.lib(X86DisablePaging64.obj)
                              (--whole-archive)
/mnt/c/SerranonOS/UEFI/vUDK2017/Build/DuetPkgX64/DEBUG_GCC5/X64/MdePkg/Library/BaseLib/BaseLib/OUTPUT/BaseLib.lib(X86DisablePaging32.obj)
                              (--whole-archive)
/mnt/c/SerranonOS/UEFI/vUDK2017/Build/DuetPkgX64/DEBUG_GCC5/X64/MdePkg/Library/BaseLib/BaseLib/OUTPUT/BaseLib.lib(X86RdRand.obj)
                              (--whole-archive)
/mnt/c/SerranonOS/UEFI/vUDK2017/Build/DuetPkgX64/DEBUG_GCC5/X64/MdePkg/Library/BaseLib/BaseLib/OUTPUT/BaseLib.lib(GccInline.obj)
                              (--whole-archive)
/mnt/c/SerranonOS/UEFI/vUDK2017/Build/DuetPkgX64/DEBUG_GCC5/X64/MdePkg/Library/BaseLib/BaseLib/OUTPUT/BaseLib.lib(SwitchStack.obj)
                              (--whole-archive)
/mnt/c/SerranonOS/UEFI/vUDK2017/Build/DuetPkgX64/DEBUG_GCC5/X64/MdePkg/Library/BaseLib/BaseLib/OUTPUT/BaseLib.lib(SetJump.obj)
                              (--whole-archive)
/mnt/c/SerranonOS/UEFI/vUDK2017/Build/DuetPkgX64/DEBUG_GCC5/X64/MdePkg/Library/BaseLib/BaseLib/OUTPUT/BaseLib.lib(LongJump.obj)
                              (--whole-archive)
/mnt/c/SerranonOS/UEFI/vUDK2017/Build/DuetPkgX64/DEBUG_GCC5/X64/MdePkg/Library/BaseLib/BaseLib/OUTPUT/BaseLib.lib(EnableDisableInterrupts.obj)
                              (--whole-archive)
/mnt/c/SerranonOS/UEFI/vUDK2017/Build/DuetPkgX64/DEBUG_GCC5/X64/MdePkg/Library/BaseLib/BaseLib/OUTPUT/BaseLib.lib(DisablePaging64.obj)
                              (--whole-archive)
/mnt/c/SerranonOS/UEFI/vUDK2017/Build/DuetPkgX64/DEBUG_GCC5/X64/MdePkg/Library/BaseLib/BaseLib/OUTPUT/BaseLib.lib(CpuId.obj)
                              (--whole-archive)
/mnt/c/SerranonOS/UEFI/vUDK2017/Build/DuetPkgX64/DEBUG_GCC5/X64/MdePkg/Library/BaseLib/BaseLib/OUTPUT/BaseLib.lib(CpuIdEx.obj)
                              (--whole-archive)
/mnt/c/SerranonOS/UEFI/vUDK2017/Build/DuetPkgX64/DEBUG_GCC5/X64/MdePkg/Library/BaseLib/BaseLib/OUTPUT/BaseLib.lib(EnableCache.obj)
                              (--whole-archive)
/mnt/c/SerranonOS/UEFI/vUDK2017/Build/DuetPkgX64/DEBUG_GCC5/X64/MdePkg/Library/BaseLib/BaseLib/OUTPUT/BaseLib.lib(DisableCache.obj)
                              (--whole-archive)
/mnt/c/SerranonOS/UEFI/vUDK2017/Build/DuetPkgX64/DEBUG_GCC5/X64/MdePkg/Library/BaseLib/BaseLib/OUTPUT/BaseLib.lib(RdRand.obj)
                              (--whole-archive)
/mnt/c/SerranonOS/UEFI/vUDK2017/Build/DuetPkgX64/DEBUG_GCC5/X64/MdePkg/Library/BaseLib/BaseLib/OUTPUT/BaseLib.lib(ChkStkGcc.obj)
                              (--whole-archive)
/mnt/c/SerranonOS/UEFI/vUDK2017/Build/DuetPkgX64/DEBUG_GCC5/X64/MdePkg/Library/BaseMemoryLib/BaseMemoryLib/OUTPUT/BaseMemoryLib.lib(SetMem.obj)
                              (--whole-archive)
/mnt/c/SerranonOS/UEFI/vUDK2017/Build/DuetPkgX64/DEBUG_GCC5/X64/MdePkg/Library/BaseMemoryLib/BaseMemoryLib/OUTPUT/BaseMemoryLib.lib(ScanMem64Wrapper.obj)
                              (--whole-archive)
/mnt/c/SerranonOS/UEFI/vUDK2017/Build/DuetPkgX64/DEBUG_GCC5/X64/MdePkg/Library/BaseMemoryLib/BaseMemoryLib/OUTPUT/BaseMemoryLib.lib(ScanMem32Wrapper.obj)
                              (--whole-archive)
/mnt/c/SerranonOS/UEFI/vUDK2017/Build/DuetPkgX64/DEBUG_GCC5/X64/MdePkg/Library/BaseMemoryLib/BaseMemoryLib/OUTPUT/BaseMemoryLib.lib(ScanMem16Wrapper.obj)
                              (--whole-archive)
/mnt/c/SerranonOS/UEFI/vUDK2017/Build/DuetPkgX64/DEBUG_GCC5/X64/MdePkg/Library/BaseMemoryLib/BaseMemoryLib/OUTPUT/BaseMemoryLib.lib(ScanMem8Wrapper.obj)
                              (--whole-archive)
/mnt/c/SerranonOS/UEFI/vUDK2017/Build/DuetPkgX64/DEBUG_GCC5/X64/MdePkg/Library/BaseMemoryLib/BaseMemoryLib/OUTPUT/BaseMemoryLib.lib(ZeroMemWrapper.obj)
                              (--whole-archive)
/mnt/c/SerranonOS/UEFI/vUDK2017/Build/DuetPkgX64/DEBUG_GCC5/X64/MdePkg/Library/BaseMemoryLib/BaseMemoryLib/OUTPUT/BaseMemoryLib.lib(CompareMemWrapper.obj)
                              (--whole-archive)
/mnt/c/SerranonOS/UEFI/vUDK2017/Build/DuetPkgX64/DEBUG_GCC5/X64/MdePkg/Library/BaseMemoryLib/BaseMemoryLib/OUTPUT/BaseMemoryLib.lib(SetMem64Wrapper.obj)
                              (--whole-archive)
/mnt/c/SerranonOS/UEFI/vUDK2017/Build/DuetPkgX64/DEBUG_GCC5/X64/MdePkg/Library/BaseMemoryLib/BaseMemoryLib/OUTPUT/BaseMemoryLib.lib(SetMem32Wrapper.obj)
                              (--whole-archive)
/mnt/c/SerranonOS/UEFI/vUDK2017/Build/DuetPkgX64/DEBUG_GCC5/X64/MdePkg/Library/BaseMemoryLib/BaseMemoryLib/OUTPUT/BaseMemoryLib.lib(SetMem16Wrapper.obj)
                              (--whole-archive)
/mnt/c/SerranonOS/UEFI/vUDK2017/Build/DuetPkgX64/DEBUG_GCC5/X64/MdePkg/Library/BaseMemoryLib/BaseMemoryLib/OUTPUT/BaseMemoryLib.lib(SetMemWrapper.obj)
                              (--whole-archive)
/mnt/c/SerranonOS/UEFI/vUDK2017/Build/DuetPkgX64/DEBUG_GCC5/X64/MdePkg/Library/BaseMemoryLib/BaseMemoryLib/OUTPUT/BaseMemoryLib.lib(CopyMemWrapper.obj)
                              (--whole-archive)
/mnt/c/SerranonOS/UEFI/vUDK2017/Build/DuetPkgX64/DEBUG_GCC5/X64/MdePkg/Library/BaseMemoryLib/BaseMemoryLib/OUTPUT/BaseMemoryLib.lib(IsZeroBufferWrapper.obj)
                              (--whole-archive)
/mnt/c/SerranonOS/UEFI/vUDK2017/Build/DuetPkgX64/DEBUG_GCC5/X64/MdePkg/Library/BaseMemoryLib/BaseMemoryLib/OUTPUT/BaseMemoryLib.lib(MemLibGeneric.obj)
                              (--whole-archive)
/mnt/c/SerranonOS/UEFI/vUDK2017/Build/DuetPkgX64/DEBUG_GCC5/X64/MdePkg/Library/BaseMemoryLib/BaseMemoryLib/OUTPUT/BaseMemoryLib.lib(MemLibGuid.obj)
                              (--whole-archive)
/mnt/c/SerranonOS/UEFI/vUDK2017/Build/DuetPkgX64/DEBUG_GCC5/X64/MdePkg/Library/BaseMemoryLib/BaseMemoryLib/OUTPUT/BaseMemoryLib.lib(CopyMem.obj)
                              (--whole-archive)
/mnt/c/SerranonOS/UEFI/vUDK2017/Build/DuetPkgX64/DEBUG_GCC5/X64/MdePkg/Library/BasePrintLib/BasePrintLib/OUTPUT/BasePrintLib.lib(PrintLibInternal.obj)
                              (--whole-archive)
/mnt/c/SerranonOS/UEFI/vUDK2017/Build/DuetPkgX64/DEBUG_GCC5/X64/MdePkg/Library/BasePrintLib/BasePrintLib/OUTPUT/BasePrintLib.lib(PrintLib.obj)
                              (--whole-archive)
/mnt/c/SerranonOS/UEFI/vUDK2017/Build/DuetPkgX64/DEBUG_GCC5/X64/MdeModulePkg/Library/DxeCoreMemoryAllocationLib/DxeCoreMemoryAllocationLib/OUTPUT/DxeCoreMemoryAllocationLib.lib(MemoryAllocationLib.obj)
                              (--whole-archive)
/mnt/c/SerranonOS/UEFI/vUDK2017/Build/DuetPkgX64/DEBUG_GCC5/X64/MdeModulePkg/Library/DxeCoreMemoryAllocationLib/DxeCoreMemoryAllocationLib/OUTPUT/DxeCoreMemoryAllocationLib.lib(DxeCoreMemoryProfileLibNull.obj)
                              (--whole-archive)
/mnt/c/SerranonOS/UEFI/vUDK2017/Build/DuetPkgX64/DEBUG_GCC5/X64/MdePkg/Library/DxeCoreEntryPoint/DxeCoreEntryPoint/OUTPUT/DxeCoreEntryPoint.lib(DxeCoreEntryPoint.obj)
                              (--whole-archive)
/mnt/c/SerranonOS/UEFI/vUDK2017/Build/DuetPkgX64/DEBUG_GCC5/X64/MdePkg/Library/UefiDevicePathLib/UefiDevicePathLib/OUTPUT/UefiDevicePathLib.lib(DevicePathUtilities.obj)
                              (--whole-archive)
/mnt/c/SerranonOS/UEFI/vUDK2017/Build/DuetPkgX64/DEBUG_GCC5/X64/MdePkg/Library/UefiDevicePathLib/UefiDevicePathLib/OUTPUT/UefiDevicePathLib.lib(DevicePathToText.obj)
                              (--whole-archive)
/mnt/c/SerranonOS/UEFI/vUDK2017/Build/DuetPkgX64/DEBUG_GCC5/X64/MdePkg/Library/UefiDevicePathLib/UefiDevicePathLib/OUTPUT/UefiDevicePathLib.lib(DevicePathFromText.obj)
                              (--whole-archive)
/mnt/c/SerranonOS/UEFI/vUDK2017/Build/DuetPkgX64/DEBUG_GCC5/X64/MdePkg/Library/UefiDevicePathLib/UefiDevicePathLib/OUTPUT/UefiDevicePathLib.lib(UefiDevicePathLib.obj)
                              (--whole-archive)
/mnt/c/SerranonOS/UEFI/vUDK2017/Build/DuetPkgX64/DEBUG_GCC5/X64/MdePkg/Library/UefiBootServicesTableLib/UefiBootServicesTableLib/OUTPUT/UefiBootServicesTableLib.lib(UefiBootServicesTableLib.obj)
                              (--whole-archive)
/mnt/c/SerranonOS/UEFI/vUDK2017/Build/DuetPkgX64/DEBUG_GCC5/X64/MdePkg/Library/DxeCoreHobLib/DxeCoreHobLib/OUTPUT/DxeCoreHobLib.lib(HobLib.obj)
                              (--whole-archive)
/mnt/c/SerranonOS/UEFI/vUDK2017/Build/DuetPkgX64/DEBUG_GCC5/X64/DuetPkg/Library/DxeCoreReportStatusCodeLibFromHob/DxeCoreReportStatusCodeLibFromHob/OUTPUT/DxeCoreReportStatusCodeLibFromHob.lib(ReportStatusCodeLib.obj)
                              (--whole-archive)
/mnt/c/SerranonOS/UEFI/vUDK2017/Build/DuetPkgX64/DEBUG_GCC5/X64/DuetPkg/Library/DxeCoreReportStatusCodeLibFromHob/DxeCoreReportStatusCodeLibFromHob/OUTPUT/DxeCoreReportStatusCodeLibFromHob.lib(DxeSupport.obj)
                              (--whole-archive)
/mnt/c/SerranonOS/UEFI/vUDK2017/Build/DuetPkgX64/DEBUG_GCC5/X64/MdePkg/Library/BaseIoLibIntrinsic/BaseIoLibIntrinsic/OUTPUT/BaseIoLibIntrinsic.lib(IoLibMmioBuffer.obj)
                              (--whole-archive)
/mnt/c/SerranonOS/UEFI/vUDK2017/Build/DuetPkgX64/DEBUG_GCC5/X64/MdePkg/Library/BaseIoLibIntrinsic/BaseIoLibIntrinsic/OUTPUT/BaseIoLibIntrinsic.lib(IoHighLevel.obj)
                              (--whole-archive)
/mnt/c/SerranonOS/UEFI/vUDK2017/Build/DuetPkgX64/DEBUG_GCC5/X64/MdePkg/Library/BaseIoLibIntrinsic/BaseIoLibIntrinsic/OUTPUT/BaseIoLibIntrinsic.lib(IoLibGcc.obj)
                              (--whole-archive)
/mnt/c/SerranonOS/UEFI/vUDK2017/Build/DuetPkgX64/DEBUG_GCC5/X64/MdePkg/Library/BaseIoLibIntrinsic/BaseIoLibIntrinsic/OUTPUT/BaseIoLibIntrinsic.lib(IoLib.obj)
                              (--whole-archive)
/mnt/c/SerranonOS/UEFI/vUDK2017/Build/DuetPkgX64/DEBUG_GCC5/X64/MdePkg/Library/BaseIoLibIntrinsic/BaseIoLibIntrinsic/OUTPUT/BaseIoLibIntrinsic.lib(IoFifo.obj)
                              (--whole-archive)
/mnt/c/SerranonOS/UEFI/vUDK2017/Build/DuetPkgX64/DEBUG_GCC5/X64/MdePkg/Library/BasePciCf8Lib/BasePciCf8Lib/OUTPUT/BasePciCf8Lib.lib(PciCf8Lib.obj)
                              (--whole-archive)
/mnt/c/SerranonOS/UEFI/vUDK2017/Build/DuetPkgX64/DEBUG_GCC5/X64/MdePkg/Library/UefiRuntimeServicesTableLib/UefiRuntimeServicesTableLib/OUTPUT/UefiRuntimeServicesTableLib.lib(UefiRuntimeServicesTableLib.obj)
                              (--whole-archive)
/mnt/c/SerranonOS/UEFI/vUDK2017/Build/DuetPkgX64/DEBUG_GCC5/X64/DuetPkg/Library/DuetTimerLib/DuetTimerLib/OUTPUT/DuetTimerLib.lib(X86TimerLib.obj)
                              (--whole-archive)
/mnt/c/SerranonOS/UEFI/vUDK2017/Build/DuetPkgX64/DEBUG_GCC5/X64/MdePkg/Library/BasePciLibCf8/BasePciLibCf8/OUTPUT/BasePciLibCf8.lib(PciLib.obj)
                              (--whole-archive)
/mnt/c/SerranonOS/UEFI/vUDK2017/Build/DuetPkgX64/DEBUG_GCC5/X64/MdeModulePkg/Library/BasePlatformHookLibNull/BasePlatformHookLibNull/OUTPUT/BasePlatformHookLibNull.lib(BasePlatformHookLibNull.obj)
                              (--whole-archive)
/mnt/c/SerranonOS/UEFI/vUDK2017/Build/DuetPkgX64/DEBUG_GCC5/X64/MdePkg/Library/BasePeCoffExtraActionLibNull/BasePeCoffExtraActionLibNull/OUTPUT/PeCoffExtraActionLibNull.lib(PeCoffExtraActionLib.obj)
                              (--whole-archive)
/mnt/c/SerranonOS/UEFI/vUDK2017/Build/DuetPkgX64/DEBUG_GCC5/X64/MdePkg/Library/UefiLib/UefiLib/OUTPUT/UefiLib.lib(UefiLibPrint.obj)
                              (--whole-archive)
/mnt/c/SerranonOS/UEFI/vUDK2017/Build/DuetPkgX64/DEBUG_GCC5/X64/MdePkg/Library/UefiLib/UefiLib/OUTPUT/UefiLib.lib(UefiNotTiano.obj)
                              (--whole-archive)
/mnt/c/SerranonOS/UEFI/vUDK2017/Build/DuetPkgX64/DEBUG_GCC5/X64/MdePkg/Library/UefiLib/UefiLib/OUTPUT/UefiLib.lib(UefiDriverModel.obj)
                              (--whole-archive)
/mnt/c/SerranonOS/UEFI/vUDK2017/Build/DuetPkgX64/DEBUG_GCC5/X64/MdePkg/Library/UefiLib/UefiLib/OUTPUT/UefiLib.lib(Console.obj)
                              (--whole-archive)
/mnt/c/SerranonOS/UEFI/vUDK2017/Build/DuetPkgX64/DEBUG_GCC5/X64/MdePkg/Library/UefiLib/UefiLib/OUTPUT/UefiLib.lib(UefiLib.obj)
                              (--whole-archive)
/mnt/c/SerranonOS/UEFI/vUDK2017/Build/DuetPkgX64/DEBUG_GCC5/X64/UefiCpuPkg/Library/BaseXApicLib/BaseXApicLib/OUTPUT/BaseXApicLib.lib(BaseXApicLib.obj)
                              (--whole-archive)
/mnt/c/SerranonOS/UEFI/vUDK2017/Build/DuetPkgX64/DEBUG_GCC5/X64/MdePkg/Library/BaseSynchronizationLib/BaseSynchronizationLib/OUTPUT/BaseSynchronizationLib.lib(InternalGetSpinLockProperties.obj)
                              (--whole-archive)
/mnt/c/SerranonOS/UEFI/vUDK2017/Build/DuetPkgX64/DEBUG_GCC5/X64/MdePkg/Library/BaseSynchronizationLib/BaseSynchronizationLib/OUTPUT/BaseSynchronizationLib.lib(GccInline.obj)
                              (--whole-archive)
/mnt/c/SerranonOS/UEFI/vUDK2017/Build/DuetPkgX64/DEBUG_GCC5/X64/MdePkg/Library/BaseSynchronizationLib/BaseSynchronizationLib/OUTPUT/BaseSynchronizationLib.lib(SynchronizationGcc.obj)
                              (--whole-archive)
/mnt/c/SerranonOS/UEFI/vUDK2017/Build/DuetPkgX64/DEBUG_GCC5/X64/MdeModulePkg/Library/BaseSerialPortLib16550/BaseSerialPortLib16550/OUTPUT/BaseSerialPortLib16550.lib(BaseSerialPortLib16550.obj)
                              (--whole-archive)
/mnt/c/SerranonOS/UEFI/vUDK2017/Build/DuetPkgX64/DEBUG_GCC5/X64/MdePkg/Library/BasePeCoffGetEntryPointLib/BasePeCoffGetEntryPointLib/OUTPUT/BasePeCoffGetEntryPointLib.lib(PeCoffGetEntryPoint.obj)
                              (--whole-archive)
/mnt/c/SerranonOS/UEFI/vUDK2017/Build/DuetPkgX64/DEBUG_GCC5/X64/MdePkg/Library/BaseCacheMaintenanceLib/BaseCacheMaintenanceLib/OUTPUT/BaseCacheMaintenanceLib.lib(X86Cache.obj)
                              (--whole-archive)
/mnt/c/SerranonOS/UEFI/vUDK2017/Build/DuetPkgX64/DEBUG_GCC5/X64/MdePkg/Library/BaseUefiDecompressLib/BaseUefiDecompressLib/OUTPUT/BaseUefiDecompressLib.lib(BaseUefiDecompressLib.obj)
                              (--whole-archive)
/mnt/c/SerranonOS/UEFI/vUDK2017/Build/DuetPkgX64/DEBUG_GCC5/X64/MdePkg/Library/BasePerformanceLibNull/BasePerformanceLibNull/OUTPUT/BasePerformanceLibNull.lib(PerformanceLib.obj)
                              (--whole-archive)
/mnt/c/SerranonOS/UEFI/vUDK2017/Build/DuetPkgX64/DEBUG_GCC5/X64/MdePkg/Library/BasePeCoffLib/BasePeCoffLib/OUTPUT/BasePeCoffLib.lib(BasePeCoff.obj)
                              (--whole-archive)
/mnt/c/SerranonOS/UEFI/vUDK2017/Build/DuetPkgX64/DEBUG_GCC5/X64/MdePkg/Library/BasePeCoffLib/BasePeCoffLib/OUTPUT/BasePeCoffLib.lib(PeCoffLoaderEx.obj)
                              (--whole-archive)
/mnt/c/SerranonOS/UEFI/vUDK2017/Build/DuetPkgX64/DEBUG_GCC5/X64/MdePkg/Library/DxeExtractGuidedSectionLib/DxeExtractGuidedSectionLib/OUTPUT/DxeExtractGuidedSectionLib.lib(DxeExtractGuidedSectionLib.obj)
                              (--whole-archive)
/mnt/c/SerranonOS/UEFI/vUDK2017/Build/DuetPkgX64/DEBUG_GCC5/X64/MdePkg/Library/DxeServicesLib/DxeServicesLib/OUTPUT/DxeServicesLib.lib(DxeServicesLib.obj)
                              (--whole-archive)
/mnt/c/SerranonOS/UEFI/vUDK2017/Build/DuetPkgX64/DEBUG_GCC5/X64/MdeModulePkg/Library/DebugAgentLibNull/DebugAgentLibNull/OUTPUT/DebugAgentLibNull.lib(DebugAgentLibNull.obj)
                              (--whole-archive)
/mnt/c/SerranonOS/UEFI/vUDK2017/Build/DuetPkgX64/DEBUG_GCC5/X64/UefiCpuPkg/Library/CpuExceptionHandlerLib/DxeCpuExceptionHandlerLib/OUTPUT/DxeCpuExceptionHandlerLib.lib(ExceptionHandlerAsm.obj)
                              (--whole-archive)
/mnt/c/SerranonOS/UEFI/vUDK2017/Build/DuetPkgX64/DEBUG_GCC5/X64/UefiCpuPkg/Library/CpuExceptionHandlerLib/DxeCpuExceptionHandlerLib/OUTPUT/DxeCpuExceptionHandlerLib.lib(ArchExceptionHandler.obj)
                              (--whole-archive)
/mnt/c/SerranonOS/UEFI/vUDK2017/Build/DuetPkgX64/DEBUG_GCC5/X64/UefiCpuPkg/Library/CpuExceptionHandlerLib/DxeCpuExceptionHandlerLib/OUTPUT/DxeCpuExceptionHandlerLib.lib(CpuExceptionCommon.obj)
                              (--whole-archive)
/mnt/c/SerranonOS/UEFI/vUDK2017/Build/DuetPkgX64/DEBUG_GCC5/X64/UefiCpuPkg/Library/CpuExceptionHandlerLib/DxeCpuExceptionHandlerLib/OUTPUT/DxeCpuExceptionHandlerLib.lib(PeiDxeSmmCpuException.obj)
                              (--whole-archive)
/mnt/c/SerranonOS/UEFI/vUDK2017/Build/DuetPkgX64/DEBUG_GCC5/X64/UefiCpuPkg/Library/CpuExceptionHandlerLib/DxeCpuExceptionHandlerLib/OUTPUT/DxeCpuExceptionHandlerLib.lib(DxeException.obj)
                              (--whole-archive)
/mnt/c/SerranonOS/UEFI/vUDK2017/Build/DuetPkgX64/DEBUG_GCC5/X64/MdeModulePkg/Core/Dxe/DxeMain/OUTPUT/DxeCore.lib(CoreSectionExtraction.obj)
                              (--whole-archive)
/mnt/c/SerranonOS/UEFI/vUDK2017/Build/DuetPkgX64/DEBUG_GCC5/X64/MdeModulePkg/Core/Dxe/DxeMain/OUTPUT/DxeCore.lib(Image.obj)
                              (--whole-archive)
/mnt/c/SerranonOS/UEFI/vUDK2017/Build/DuetPkgX64/DEBUG_GCC5/X64/MdeModulePkg/Core/Dxe/DxeMain/OUTPUT/DxeCore.lib(DebugImageInfo.obj)
                              (--whole-archive)
/mnt/c/SerranonOS/UEFI/vUDK2017/Build/DuetPkgX64/DEBUG_GCC5/X64/MdeModulePkg/Core/Dxe/DxeMain/OUTPUT/DxeCore.lib(Stall.obj)
                              (--whole-archive)
/mnt/c/SerranonOS/UEFI/vUDK2017/Build/DuetPkgX64/DEBUG_GCC5/X64/MdeModulePkg/Core/Dxe/DxeMain/OUTPUT/DxeCore.lib(SetWatchdogTimer.obj)
                              (--whole-archive)
/mnt/c/SerranonOS/UEFI/vUDK2017/Build/DuetPkgX64/DEBUG_GCC5/X64/MdeModulePkg/Core/Dxe/DxeMain/OUTPUT/DxeCore.lib(InstallConfigurationTable.obj)
                              (--whole-archive)
/mnt/c/SerranonOS/UEFI/vUDK2017/Build/DuetPkgX64/DEBUG_GCC5/X64/MdeModulePkg/Core/Dxe/DxeMain/OUTPUT/DxeCore.lib(PropertiesTable.obj)
                              (--whole-archive)
/mnt/c/SerranonOS/UEFI/vUDK2017/Build/DuetPkgX64/DEBUG_GCC5/X64/MdeModulePkg/Core/Dxe/DxeMain/OUTPUT/DxeCore.lib(MemoryAttributesTable.obj)
                              (--whole-archive)
/mnt/c/SerranonOS/UEFI/vUDK2017/Build/DuetPkgX64/DEBUG_GCC5/X64/MdeModulePkg/Core/Dxe/DxeMain/OUTPUT/DxeCore.lib(MemoryProtection.obj)
                              (--whole-archive)
/mnt/c/SerranonOS/UEFI/vUDK2017/Build/DuetPkgX64/DEBUG_GCC5/X64/MdeModulePkg/Core/Dxe/DxeMain/OUTPUT/DxeCore.lib(Library.obj)
                              (--whole-archive)
/mnt/c/SerranonOS/UEFI/vUDK2017/Build/DuetPkgX64/DEBUG_GCC5/X64/MdeModulePkg/Core/Dxe/DxeMain/OUTPUT/DxeCore.lib(DriverSupport.obj)
                              (--whole-archive)
/mnt/c/SerranonOS/UEFI/vUDK2017/Build/DuetPkgX64/DEBUG_GCC5/X64/MdeModulePkg/Core/Dxe/DxeMain/OUTPUT/DxeCore.lib(Notify.obj)
                              (--whole-archive)
/mnt/c/SerranonOS/UEFI/vUDK2017/Build/DuetPkgX64/DEBUG_GCC5/X64/MdeModulePkg/Core/Dxe/DxeMain/OUTPUT/DxeCore.lib(Locate.obj)
                              (--whole-archive)
/mnt/c/SerranonOS/UEFI/vUDK2017/Build/DuetPkgX64/DEBUG_GCC5/X64/MdeModulePkg/Core/Dxe/DxeMain/OUTPUT/DxeCore.lib(Handle.obj)
                              (--whole-archive)
/mnt/c/SerranonOS/UEFI/vUDK2017/Build/DuetPkgX64/DEBUG_GCC5/X64/MdeModulePkg/Core/Dxe/DxeMain/OUTPUT/DxeCore.lib(Gcd.obj)
                              (--whole-archive)
/mnt/c/SerranonOS/UEFI/vUDK2017/Build/DuetPkgX64/DEBUG_GCC5/X64/MdeModulePkg/Core/Dxe/DxeMain/OUTPUT/DxeCore.lib(Pool.obj)
                              (--whole-archive)
/mnt/c/SerranonOS/UEFI/vUDK2017/Build/DuetPkgX64/DEBUG_GCC5/X64/MdeModulePkg/Core/Dxe/DxeMain/OUTPUT/DxeCore.lib(Page.obj)
                              (--whole-archive)
/mnt/c/SerranonOS/UEFI/vUDK2017/Build/DuetPkgX64/DEBUG_GCC5/X64/MdeModulePkg/Core/Dxe/DxeMain/OUTPUT/DxeCore.lib(MemData.obj)
                              (--whole-archive)
/mnt/c/SerranonOS/UEFI/vUDK2017/Build/DuetPkgX64/DEBUG_GCC5/X64/MdeModulePkg/Core/Dxe/DxeMain/OUTPUT/DxeCore.lib(MemoryProfileRecord.obj)
                              (--whole-archive)
/mnt/c/SerranonOS/UEFI/vUDK2017/Build/DuetPkgX64/DEBUG_GCC5/X64/MdeModulePkg/Core/Dxe/DxeMain/OUTPUT/DxeCore.lib(HeapGuard.obj)
                              (--whole-archive)
/mnt/c/SerranonOS/UEFI/vUDK2017/Build/DuetPkgX64/DEBUG_GCC5/X64/MdeModulePkg/Core/Dxe/DxeMain/OUTPUT/DxeCore.lib(FwVolBlock.obj)
                              (--whole-archive)
/mnt/c/SerranonOS/UEFI/vUDK2017/Build/DuetPkgX64/DEBUG_GCC5/X64/MdeModulePkg/Core/Dxe/DxeMain/OUTPUT/DxeCore.lib(FwVolWrite.obj)
                              (--whole-archive)
/mnt/c/SerranonOS/UEFI/vUDK2017/Build/DuetPkgX64/DEBUG_GCC5/X64/MdeModulePkg/Core/Dxe/DxeMain/OUTPUT/DxeCore.lib(FwVolRead.obj)
                              (--whole-archive)
/mnt/c/SerranonOS/UEFI/vUDK2017/Build/DuetPkgX64/DEBUG_GCC5/X64/MdeModulePkg/Core/Dxe/DxeMain/OUTPUT/DxeCore.lib(FwVolAttrib.obj)
                              (--whole-archive)
/mnt/c/SerranonOS/UEFI/vUDK2017/Build/DuetPkgX64/DEBUG_GCC5/X64/MdeModulePkg/Core/Dxe/DxeMain/OUTPUT/DxeCore.lib(Ffs.obj)
                              (--whole-archive)
/mnt/c/SerranonOS/UEFI/vUDK2017/Build/DuetPkgX64/DEBUG_GCC5/X64/MdeModulePkg/Core/Dxe/DxeMain/OUTPUT/DxeCore.lib(FwVol.obj)
                              (--whole-archive)
/mnt/c/SerranonOS/UEFI/vUDK2017/Build/DuetPkgX64/DEBUG_GCC5/X64/MdeModulePkg/Core/Dxe/DxeMain/OUTPUT/DxeCore.lib(Tpl.obj)
                              (--whole-archive)
/mnt/c/SerranonOS/UEFI/vUDK2017/Build/DuetPkgX64/DEBUG_GCC5/X64/MdeModulePkg/Core/Dxe/DxeMain/OUTPUT/DxeCore.lib(Timer.obj)
                              (--whole-archive)
/mnt/c/SerranonOS/UEFI/vUDK2017/Build/DuetPkgX64/DEBUG_GCC5/X64/MdeModulePkg/Core/Dxe/DxeMain/OUTPUT/DxeCore.lib(Event.obj)
                              (--whole-archive)
/mnt/c/SerranonOS/UEFI/vUDK2017/Build/DuetPkgX64/DEBUG_GCC5/X64/MdeModulePkg/Core/Dxe/DxeMain/OUTPUT/DxeCore.lib(Dependency.obj)
                              (--whole-archive)
/mnt/c/SerranonOS/UEFI/vUDK2017/Build/DuetPkgX64/DEBUG_GCC5/X64/MdeModulePkg/Core/Dxe/DxeMain/OUTPUT/DxeCore.lib(Dispatcher.obj)
                              (--whole-archive)
/mnt/c/SerranonOS/UEFI/vUDK2017/Build/DuetPkgX64/DEBUG_GCC5/X64/MdeModulePkg/Core/Dxe/DxeMain/OUTPUT/DxeCore.lib(DxeProtocolNotify.obj)
                              (--whole-archive)
/mnt/c/SerranonOS/UEFI/vUDK2017/Build/DuetPkgX64/DEBUG_GCC5/X64/MdeModulePkg/Core/Dxe/DxeMain/OUTPUT/DxeCore.lib(DxeMain.obj)
                              (--whole-archive)
/mnt/c/SerranonOS/UEFI/vUDK2017/Build/DuetPkgX64/DEBUG_GCC5/X64/MdeModulePkg/Core/Dxe/DxeMain/OUTPUT/DxeCore.lib(AutoGen.obj)
                              (--whole-archive)

Discarded input sections

 .text          0x0000000000000000        0x0 /tmp/ccF7NaNG.ltrans0.ltrans.o
 .data          0x0000000000000000        0x0 /tmp/ccF7NaNG.ltrans0.ltrans.o
 .bss           0x0000000000000000        0x0 /tmp/ccF7NaNG.ltrans0.ltrans.o
 .text.unlikely.DxeMain
                0x0000000000000000        0x0 /tmp/ccF7NaNG.ltrans0.ltrans.o
 .rodata._gPcd_FixedAtBuild_PcdImageProtectionPolicy
                0x0000000000000000        0x4 /tmp/ccF7NaNG.ltrans0.ltrans.o
 .rodata.mNumberOfExtractHandler
                0x0000000000000000        0x4 /tmp/ccF7NaNG.ltrans0.ltrans.o
 .data.rel.ro.local.gDxeCoreDS
                0x0000000000000000        0x8 /tmp/ccF7NaNG.ltrans0.ltrans.o
 .comment       0x0000000000000000       0x35 /tmp/ccF7NaNG.ltrans0.ltrans.o
 .note.GNU-stack
                0x0000000000000000        0x0 /tmp/ccF7NaNG.ltrans0.ltrans.o
 .text          0x0000000000000000        0x0 /tmp/ccF7NaNG.ltrans1.ltrans.o
 .data          0x0000000000000000        0x0 /tmp/ccF7NaNG.ltrans1.ltrans.o
 .bss           0x0000000000000000        0x0 /tmp/ccF7NaNG.ltrans1.ltrans.o
 .text.unlikely.CoreLoadImageCommon
                0x0000000000000000        0x0 /tmp/ccF7NaNG.ltrans1.ltrans.o
 .comment       0x0000000000000000       0x35 /tmp/ccF7NaNG.ltrans1.ltrans.o
 .note.GNU-stack
                0x0000000000000000        0x0 /tmp/ccF7NaNG.ltrans1.ltrans.o
 .text          0x0000000000000000        0x0 /tmp/ccF7NaNG.ltrans2.ltrans.o
 .data          0x0000000000000000        0x0 /tmp/ccF7NaNG.ltrans2.ltrans.o
 .bss           0x0000000000000000        0x0 /tmp/ccF7NaNG.ltrans2.ltrans.o
 .text.unlikely.GetInterruptState
                0x0000000000000000        0x0 /tmp/ccF7NaNG.ltrans2.ltrans.o
 .text.GetInterruptState
                0x0000000000000000        0xa /tmp/ccF7NaNG.ltrans2.ltrans.o
 .text.unlikely.AsciiStrnLenS
                0x0000000000000000        0x0 /tmp/ccF7NaNG.ltrans2.ltrans.o
 .text.unlikely.SetInterruptState
                0x0000000000000000        0x0 /tmp/ccF7NaNG.ltrans2.ltrans.o
 .text.SetInterruptState
                0x0000000000000000        0xb /tmp/ccF7NaNG.ltrans2.ltrans.o
 .text.unlikely.CpuDeadLoop
                0x0000000000000000        0x0 /tmp/ccF7NaNG.ltrans2.ltrans.o
 .text.unlikely.DebugCodeEnabled
                0x0000000000000000        0x0 /tmp/ccF7NaNG.ltrans2.ltrans.o
 .text.unlikely.DebugPrintEnabled
                0x0000000000000000        0x0 /tmp/ccF7NaNG.ltrans2.ltrans.o
 .text.unlikely.DebugAssertEnabled
                0x0000000000000000        0x0 /tmp/ccF7NaNG.ltrans2.ltrans.o
 .text.unlikely.DebugAssert
                0x0000000000000000        0x0 /tmp/ccF7NaNG.ltrans2.ltrans.o
 .text.unlikely.CompareMem.part.0.lto_priv.58
                0x0000000000000000        0x0 /tmp/ccF7NaNG.ltrans2.ltrans.o
 .text.unlikely.AsmReadIdtr
                0x0000000000000000        0x0 /tmp/ccF7NaNG.ltrans2.ltrans.o
 .text.unlikely.WriteUnaligned64
                0x0000000000000000        0x0 /tmp/ccF7NaNG.ltrans2.ltrans.o
 .text.unlikely.ReadUnaligned64
                0x0000000000000000        0x0 /tmp/ccF7NaNG.ltrans2.ltrans.o
 .text.unlikely.ReadUnaligned32
                0x0000000000000000        0x0 /tmp/ccF7NaNG.ltrans2.ltrans.o
 .text.unlikely.ReadUnaligned16
                0x0000000000000000        0x0 /tmp/ccF7NaNG.ltrans2.ltrans.o
 .text.unlikely.AsciiStrLen
                0x0000000000000000        0x0 /tmp/ccF7NaNG.ltrans2.ltrans.o
 .text.unlikely.AsciiStrSize
                0x0000000000000000        0x0 /tmp/ccF7NaNG.ltrans2.ltrans.o
 .text.unlikely.StrnLenS
                0x0000000000000000        0x0 /tmp/ccF7NaNG.ltrans2.ltrans.o
 .text.StrnLenS
                0x0000000000000000       0x5d /tmp/ccF7NaNG.ltrans2.ltrans.o
 .text.unlikely.InitializeListHead
                0x0000000000000000        0x0 /tmp/ccF7NaNG.ltrans2.ltrans.o
 .text.unlikely.InternalBaseLibIsListValid
                0x0000000000000000        0x0 /tmp/ccF7NaNG.ltrans2.ltrans.o
 .text.unlikely.IsListEmpty
                0x0000000000000000        0x0 /tmp/ccF7NaNG.ltrans2.ltrans.o
 .text.unlikely.RemoveEntryList
                0x0000000000000000        0x0 /tmp/ccF7NaNG.ltrans2.ltrans.o
 .text.unlikely.GetFirstNode
                0x0000000000000000        0x0 /tmp/ccF7NaNG.ltrans2.ltrans.o
 .text.unlikely.IsNodeInList
                0x0000000000000000        0x0 /tmp/ccF7NaNG.ltrans2.ltrans.o
 .text.unlikely.IsNodeAtEnd
                0x0000000000000000        0x0 /tmp/ccF7NaNG.ltrans2.ltrans.o
 .text.unlikely.GetNextNode
                0x0000000000000000        0x0 /tmp/ccF7NaNG.ltrans2.ltrans.o
 .text.unlikely.InsertTailList
                0x0000000000000000        0x0 /tmp/ccF7NaNG.ltrans2.ltrans.o
 .text.unlikely.InsertHeadList
                0x0000000000000000        0x0 /tmp/ccF7NaNG.ltrans2.ltrans.o
 .text.unlikely.DivU64x32Remainder
                0x0000000000000000        0x0 /tmp/ccF7NaNG.ltrans2.ltrans.o
 .text.unlikely.LShiftU64
                0x0000000000000000        0x0 /tmp/ccF7NaNG.ltrans2.ltrans.o
 .text.unlikely.InternalMemSetMem
                0x0000000000000000        0x0 /tmp/ccF7NaNG.ltrans2.ltrans.o
 .text.unlikely.ZeroMem
                0x0000000000000000        0x0 /tmp/ccF7NaNG.ltrans2.ltrans.o
 .text.unlikely.RShiftU64
                0x0000000000000000        0x0 /tmp/ccF7NaNG.ltrans2.ltrans.o
 .text.unlikely.InternalAssertJumpBuffer
                0x0000000000000000        0x0 /tmp/ccF7NaNG.ltrans2.ltrans.o
 .text.unlikely.CalculateSum16
                0x0000000000000000        0x0 /tmp/ccF7NaNG.ltrans2.ltrans.o
 .text.unlikely.CalculateSum8
                0x0000000000000000        0x0 /tmp/ccF7NaNG.ltrans2.ltrans.o
 .text.unlikely.DebugClearMemory
                0x0000000000000000        0x0 /tmp/ccF7NaNG.ltrans2.ltrans.o
 .text.unlikely.DebugPrint
                0x0000000000000000        0x0 /tmp/ccF7NaNG.ltrans2.ltrans.o
 .comment       0x0000000000000000       0x35 /tmp/ccF7NaNG.ltrans2.ltrans.o
 .note.GNU-stack
                0x0000000000000000        0x0 /tmp/ccF7NaNG.ltrans2.ltrans.o
 .text          0x0000000000000000        0x0 /tmp/ccF7NaNG.ltrans3.ltrans.o
 .data          0x0000000000000000        0x0 /tmp/ccF7NaNG.ltrans3.ltrans.o
 .bss           0x0000000000000000        0x0 /tmp/ccF7NaNG.ltrans3.ltrans.o
 .text.unlikely.PeCoffLoaderImageReadFromMemory
                0x0000000000000000        0x0 /tmp/ccF7NaNG.ltrans3.ltrans.o
 .text.unlikely.InternalPrintMessage
                0x0000000000000000        0x0 /tmp/ccF7NaNG.ltrans3.ltrans.o
 .text.unlikely.PeCoffLoaderGetImageInfo.part.0.lto_priv.75
                0x0000000000000000        0x0 /tmp/ccF7NaNG.ltrans3.ltrans.o
 .text.unlikely.PeCoffLoaderImageAddress
                0x0000000000000000        0x0 /tmp/ccF7NaNG.ltrans3.ltrans.o
 .rodata._gPcd_FixedAtBuild_PcdSerialRegisterStride
                0x0000000000000000        0x4 /tmp/ccF7NaNG.ltrans3.ltrans.o
 .comment       0x0000000000000000       0x35 /tmp/ccF7NaNG.ltrans3.ltrans.o
 .note.GNU-stack
                0x0000000000000000        0x0 /tmp/ccF7NaNG.ltrans3.ltrans.o
 .text          0x0000000000000000        0x0 /tmp/ccF7NaNG.ltrans4.ltrans.o
 .data          0x0000000000000000        0x0 /tmp/ccF7NaNG.ltrans4.ltrans.o
 .bss           0x0000000000000000        0x0 /tmp/ccF7NaNG.ltrans4.ltrans.o
 .text.unlikely.InstallPropertiesTable
                0x0000000000000000        0x0 /tmp/ccF7NaNG.ltrans4.ltrans.o
 .text.unlikely.CoreGetMemoryMapWithSeparatedImageSection
                0x0000000000000000        0x0 /tmp/ccF7NaNG.ltrans4.ltrans.o
 .text.unlikely.InstallMemoryAttributesTable
                0x0000000000000000        0x0 /tmp/ccF7NaNG.ltrans4.ltrans.o
 .text.unlikely.IsImageRecordCodeSectionValid
                0x0000000000000000        0x0 /tmp/ccF7NaNG.ltrans4.ltrans.o
 .text.unlikely.SortImageRecordCodeSection
                0x0000000000000000        0x0 /tmp/ccF7NaNG.ltrans4.ltrans.o
 .text.unlikely.SetPropertiesTableSectionAlignment.lto_priv.74
                0x0000000000000000        0x0 /tmp/ccF7NaNG.ltrans4.ltrans.o
 .comment       0x0000000000000000       0x35 /tmp/ccF7NaNG.ltrans4.ltrans.o
 .note.GNU-stack
                0x0000000000000000        0x0 /tmp/ccF7NaNG.ltrans4.ltrans.o
 .text          0x0000000000000000        0x0 /tmp/ccF7NaNG.ltrans5.ltrans.o
 .data          0x0000000000000000        0x0 /tmp/ccF7NaNG.ltrans5.ltrans.o
 .bss           0x0000000000000000        0x0 /tmp/ccF7NaNG.ltrans5.ltrans.o
 .text.unlikely.CoreFindFreePagesI.part.0.constprop.34
                0x0000000000000000        0x0 /tmp/ccF7NaNG.ltrans5.ltrans.o
 .text.unlikely.BasePrintLibSPrintMarker.constprop.37
                0x0000000000000000        0x0 /tmp/ccF7NaNG.ltrans5.ltrans.o
 .text.unlikely.BasePrintLibSPrint.constprop.36
                0x0000000000000000        0x0 /tmp/ccF7NaNG.ltrans5.ltrans.o
 .text.unlikely.FindFreePages.constprop.31
                0x0000000000000000        0x0 /tmp/ccF7NaNG.ltrans5.ltrans.o
 .text.unlikely.CoreAllocatePoolPages.constprop.32
                0x0000000000000000        0x0 /tmp/ccF7NaNG.ltrans5.ltrans.o
 .text.unlikely.CoreAllocatePoolPagesI.constprop.30
                0x0000000000000000        0x0 /tmp/ccF7NaNG.ltrans5.ltrans.o
 .text.unlikely.MergeMemoryMapDescriptor.constprop.29
                0x0000000000000000        0x0 /tmp/ccF7NaNG.ltrans5.ltrans.o
 .text.unlikely.CoreNewDebugImageInfoEntry.constprop.24
                0x0000000000000000        0x0 /tmp/ccF7NaNG.ltrans5.ltrans.o
 .rodata._gPcd_FixedAtBuild_PcdFixedDebugPrintErrorLevel
                0x0000000000000000        0x4 /tmp/ccF7NaNG.ltrans5.ltrans.o
 .comment       0x0000000000000000       0x35 /tmp/ccF7NaNG.ltrans5.ltrans.o
 .note.GNU-stack
                0x0000000000000000        0x0 /tmp/ccF7NaNG.ltrans5.ltrans.o
 .text          0x0000000000000000        0x0 /tmp/ccF7NaNG.ltrans6.ltrans.o
 .data          0x0000000000000000        0x0 /tmp/ccF7NaNG.ltrans6.ltrans.o
 .bss           0x0000000000000000        0x0 /tmp/ccF7NaNG.ltrans6.ltrans.o
 .text.unlikely.EfiEventEmptyFunction
                0x0000000000000000        0x0 /tmp/ccF7NaNG.ltrans6.ltrans.o
 .text.unlikely.InvalidateInstructionCacheRange
                0x0000000000000000        0x0 /tmp/ccF7NaNG.ltrans6.ltrans.o
 .text.unlikely.LocalApicBaseAddressMsrSupported
                0x0000000000000000        0x0 /tmp/ccF7NaNG.ltrans6.ltrans.o
 .text.unlikely.GetApicMode
                0x0000000000000000        0x0 /tmp/ccF7NaNG.ltrans6.ltrans.o
 .text.unlikely.PerformanceMeasurementEnabled
                0x0000000000000000        0x0 /tmp/ccF7NaNG.ltrans6.ltrans.o
 .text.unlikely.UefiDecompressGetInfo
                0x0000000000000000        0x0 /tmp/ccF7NaNG.ltrans6.ltrans.o
 .text.unlikely.MakeTable
                0x0000000000000000        0x0 /tmp/ccF7NaNG.ltrans6.ltrans.o
 .text.unlikely.FillBuf
                0x0000000000000000        0x0 /tmp/ccF7NaNG.ltrans6.ltrans.o
 .text.unlikely.GetBits
                0x0000000000000000        0x0 /tmp/ccF7NaNG.ltrans6.ltrans.o
 .text.unlikely.ReadPTLen
                0x0000000000000000        0x0 /tmp/ccF7NaNG.ltrans6.ltrans.o
 .text.unlikely.PeCoffLoaderGetPdbPointer
                0x0000000000000000        0x0 /tmp/ccF7NaNG.ltrans6.ltrans.o
 .text.unlikely.PeCoffLoaderGetEntryPoint
                0x0000000000000000        0x0 /tmp/ccF7NaNG.ltrans6.ltrans.o
 .text.unlikely.SerialPortReadRegister
                0x0000000000000000        0x0 /tmp/ccF7NaNG.ltrans6.ltrans.o
 .text.unlikely.SerialPortWritable
                0x0000000000000000        0x0 /tmp/ccF7NaNG.ltrans6.ltrans.o
 .text.unlikely.ReleaseSpinLock
                0x0000000000000000        0x0 /tmp/ccF7NaNG.ltrans6.ltrans.o
 .text.unlikely.AcquireSpinLockOrFail
                0x0000000000000000        0x0 /tmp/ccF7NaNG.ltrans6.ltrans.o
 .text.unlikely.GetApicId
                0x0000000000000000        0x0 /tmp/ccF7NaNG.ltrans6.ltrans.o
 .text.unlikely.EfiCreateProtocolNotifyEvent
                0x0000000000000000        0x0 /tmp/ccF7NaNG.ltrans6.ltrans.o
 .text.unlikely.EfiInitializeFwVolDevicepathNode
                0x0000000000000000        0x0 /tmp/ccF7NaNG.ltrans6.ltrans.o
 .text.unlikely.EfiGetNameGuidFromFwVolDevicePathNode
                0x0000000000000000        0x0 /tmp/ccF7NaNG.ltrans6.ltrans.o
 .text.unlikely.PeCoffLoaderRelocateImageExtraAction
                0x0000000000000000        0x0 /tmp/ccF7NaNG.ltrans6.ltrans.o
 .text.unlikely.GetPerformanceCounter
                0x0000000000000000        0x0 /tmp/ccF7NaNG.ltrans6.ltrans.o
 .comment       0x0000000000000000       0x35 /tmp/ccF7NaNG.ltrans6.ltrans.o
 .note.GNU-stack
                0x0000000000000000        0x0 /tmp/ccF7NaNG.ltrans6.ltrans.o
 .text          0x0000000000000000        0x0 /tmp/ccF7NaNG.ltrans7.ltrans.o
 .data          0x0000000000000000        0x0 /tmp/ccF7NaNG.ltrans7.ltrans.o
 .bss           0x0000000000000000        0x0 /tmp/ccF7NaNG.ltrans7.ltrans.o
 .text.unlikely.FvSetVolumeInfo
                0x0000000000000000        0x0 /tmp/ccF7NaNG.ltrans7.ltrans.o
 .text.unlikely.FvGetVolumeInfo
                0x0000000000000000        0x0 /tmp/ccF7NaNG.ltrans7.ltrans.o
 .text.unlikely.FwVolBlockSetAttributes
                0x0000000000000000        0x0 /tmp/ccF7NaNG.ltrans7.ltrans.o
 .text.unlikely.FvSetVolumeAttributes
                0x0000000000000000        0x0 /tmp/ccF7NaNG.ltrans7.ltrans.o
 .text.unlikely.FvWriteFile
                0x0000000000000000        0x0 /tmp/ccF7NaNG.ltrans7.ltrans.o
 .text.unlikely.FwVolBlockWriteBlock
                0x0000000000000000        0x0 /tmp/ccF7NaNG.ltrans7.ltrans.o
 .text.unlikely.FwVolBlockEraseBlock
                0x0000000000000000        0x0 /tmp/ccF7NaNG.ltrans7.ltrans.o
 .text.unlikely.FvGetVolumeAttributes
                0x0000000000000000        0x0 /tmp/ccF7NaNG.ltrans7.ltrans.o
 .text.unlikely.FfsAttributes2FvFileAttributes
                0x0000000000000000        0x0 /tmp/ccF7NaNG.ltrans7.ltrans.o
 .text.unlikely.FwVolBlockGetBlockSize
                0x0000000000000000        0x0 /tmp/ccF7NaNG.ltrans7.ltrans.o
 .text.unlikely.FwVolBlockGetPhysicalAddress
                0x0000000000000000        0x0 /tmp/ccF7NaNG.ltrans7.ltrans.o
 .text.unlikely.FwVolBlockReadBlock
                0x0000000000000000        0x0 /tmp/ccF7NaNG.ltrans7.ltrans.o
 .text.unlikely.FwVolBlockGetAttributes
                0x0000000000000000        0x0 /tmp/ccF7NaNG.ltrans7.ltrans.o
 .text.unlikely.FvGetNextFile
                0x0000000000000000        0x0 /tmp/ccF7NaNG.ltrans7.ltrans.o
 .text.unlikely.FvReadFile
                0x0000000000000000        0x0 /tmp/ccF7NaNG.ltrans7.ltrans.o
 .text.unlikely.FvReadFileSection
                0x0000000000000000        0x0 /tmp/ccF7NaNG.ltrans7.ltrans.o
 .text.unlikely.ReadFvbData
                0x0000000000000000        0x0 /tmp/ccF7NaNG.ltrans7.ltrans.o
 .text.unlikely.GetFwVolHeader
                0x0000000000000000        0x0 /tmp/ccF7NaNG.ltrans7.ltrans.o
 .text.unlikely.GetFileState
                0x0000000000000000        0x0 /tmp/ccF7NaNG.ltrans7.ltrans.o
 .text.unlikely.ProduceFVBProtocolOnBuffer
                0x0000000000000000        0x0 /tmp/ccF7NaNG.ltrans7.ltrans.o
 .text.unlikely.CoreProcessFirmwareVolume
                0x0000000000000000        0x0 /tmp/ccF7NaNG.ltrans7.ltrans.o
 .text.unlikely.AdjustMemoryF.part.2.lto_priv.61
                0x0000000000000000        0x0 /tmp/ccF7NaNG.ltrans7.ltrans.o
 .text.unlikely.UnsetGuardForMemory.part.1.lto_priv.59
                0x0000000000000000        0x0 /tmp/ccF7NaNG.ltrans7.ltrans.o
 .text.unlikely.Uint64ToBinString
                0x0000000000000000        0x0 /tmp/ccF7NaNG.ltrans7.ltrans.o
 .text.unlikely.CoreConvertPagesWithGuard
                0x0000000000000000        0x0 /tmp/ccF7NaNG.ltrans7.ltrans.o
 .comment       0x0000000000000000       0x35 /tmp/ccF7NaNG.ltrans7.ltrans.o
 .note.GNU-stack
                0x0000000000000000        0x0 /tmp/ccF7NaNG.ltrans7.ltrans.o
 .text          0x0000000000000000        0x0 /tmp/ccF7NaNG.ltrans8.ltrans.o
 .data          0x0000000000000000        0x0 /tmp/ccF7NaNG.ltrans8.ltrans.o
 .bss           0x0000000000000000        0x0 /tmp/ccF7NaNG.ltrans8.ltrans.o
 .text.unlikely.LookupPoolHead
                0x0000000000000000        0x0 /tmp/ccF7NaNG.ltrans8.ltrans.o
 .text.unlikely.CoreAllocatePoolI
                0x0000000000000000        0x0 /tmp/ccF7NaNG.ltrans8.ltrans.o
 .text.unlikely.CoreFreeMemoryMapStack
                0x0000000000000000        0x0 /tmp/ccF7NaNG.ltrans8.ltrans.o
 .text.unlikely.RemoveMemoryMapEntry
                0x0000000000000000        0x0 /tmp/ccF7NaNG.ltrans8.ltrans.o
 .text.unlikely.CoreAddRange
                0x0000000000000000        0x0 /tmp/ccF7NaNG.ltrans8.ltrans.o
 .text.unlikely.CoreReleaseMemoryLock
                0x0000000000000000        0x0 /tmp/ccF7NaNG.ltrans8.ltrans.o
 .text.unlikely.CoreAcquireMemoryLock
                0x0000000000000000        0x0 /tmp/ccF7NaNG.ltrans8.ltrans.o
 .text.unlikely.CoreAddMemoryDescriptor
                0x0000000000000000        0x0 /tmp/ccF7NaNG.ltrans8.ltrans.o
 .text.unlikely.CoreFreePoolPagesI
                0x0000000000000000        0x0 /tmp/ccF7NaNG.ltrans8.ltrans.o
 .text.unlikely.CoreFreePoolI
                0x0000000000000000        0x0 /tmp/ccF7NaNG.ltrans8.ltrans.o
 .text.unlikely.CoreInternalFreePool.part.3.lto_priv.56
                0x0000000000000000        0x0 /tmp/ccF7NaNG.ltrans8.ltrans.o
 .text.unlikely.CoreFreePool
                0x0000000000000000        0x0 /tmp/ccF7NaNG.ltrans8.ltrans.o
 .text.unlikely.CoreInternalAllocatePool.part.1.lto_priv.57
                0x0000000000000000        0x0 /tmp/ccF7NaNG.ltrans8.ltrans.o
 .text.unlikely.CoreAllocatePool
                0x0000000000000000        0x0 /tmp/ccF7NaNG.ltrans8.ltrans.o
 .comment       0x0000000000000000       0x35 /tmp/ccF7NaNG.ltrans8.ltrans.o
 .note.GNU-stack
                0x0000000000000000        0x0 /tmp/ccF7NaNG.ltrans8.ltrans.o
 .text          0x0000000000000000        0x0 /tmp/ccF7NaNG.ltrans9.ltrans.o
 .data          0x0000000000000000        0x0 /tmp/ccF7NaNG.ltrans9.ltrans.o
 .bss           0x0000000000000000        0x0 /tmp/ccF7NaNG.ltrans9.ltrans.o
 .text.unlikely.CoreMergeGcdMapEntry
                0x0000000000000000        0x0 /tmp/ccF7NaNG.ltrans9.ltrans.o
 .text.unlikely.CoreProtocolsPerHandle
                0x0000000000000000        0x0 /tmp/ccF7NaNG.ltrans9.ltrans.o
 .text.unlikely.CoreOpenProtocolInformation
                0x0000000000000000        0x0 /tmp/ccF7NaNG.ltrans9.ltrans.o
 .text.unlikely.CoreSearchGcdMapEntry
                0x0000000000000000        0x0 /tmp/ccF7NaNG.ltrans9.ltrans.o
 .text.unlikely.CoreCleanupGcdMapEntry
                0x0000000000000000        0x0 /tmp/ccF7NaNG.ltrans9.ltrans.o
 .text.unlikely.CoreInsertGcdMapEntry
                0x0000000000000000        0x0 /tmp/ccF7NaNG.ltrans9.ltrans.o
 .text.unlikely.CoreAllocateGcdMapEntry
                0x0000000000000000        0x0 /tmp/ccF7NaNG.ltrans9.ltrans.o
 .text.unlikely.PageAlignLength
                0x0000000000000000        0x0 /tmp/ccF7NaNG.ltrans9.ltrans.o
 .text.unlikely.PageAlignAddress
                0x0000000000000000        0x0 /tmp/ccF7NaNG.ltrans9.ltrans.o
 .text.unlikely.CoreReleaseGcdMemoryLock
                0x0000000000000000        0x0 /tmp/ccF7NaNG.ltrans9.ltrans.o
 .text.unlikely.CoreAcquireGcdMemoryLock
                0x0000000000000000        0x0 /tmp/ccF7NaNG.ltrans9.ltrans.o
 .text.unlikely.CoreDumpGcdIoSpaceMap
                0x0000000000000000        0x0 /tmp/ccF7NaNG.ltrans9.ltrans.o
 .text.unlikely.CoreDumpGcdMemorySpaceMap
                0x0000000000000000        0x0 /tmp/ccF7NaNG.ltrans9.ltrans.o
 .text.unlikely.CoreConvertSpace
                0x0000000000000000        0x0 /tmp/ccF7NaNG.ltrans9.ltrans.o
 .text.unlikely.CoreInstallProtocolInterfaceNotify.part.2.lto_priv.50
                0x0000000000000000        0x0 /tmp/ccF7NaNG.ltrans9.ltrans.o
 .comment       0x0000000000000000       0x35 /tmp/ccF7NaNG.ltrans9.ltrans.o
 .note.GNU-stack
                0x0000000000000000        0x0 /tmp/ccF7NaNG.ltrans9.ltrans.o
 .text          0x0000000000000000        0x0 /tmp/ccF7NaNG.ltrans10.ltrans.o
 .data          0x0000000000000000        0x0 /tmp/ccF7NaNG.ltrans10.ltrans.o
 .bss           0x0000000000000000        0x0 /tmp/ccF7NaNG.ltrans10.ltrans.o
 .text.unlikely.CopyMem
                0x0000000000000000        0x0 /tmp/ccF7NaNG.ltrans10.ltrans.o
 .text.unlikely.SetMem
                0x0000000000000000        0x0 /tmp/ccF7NaNG.ltrans10.ltrans.o
 .text.unlikely.IoWrite32
                0x0000000000000000        0x0 /tmp/ccF7NaNG.ltrans10.ltrans.o
 .text.IoWrite32
                0x0000000000000000       0x3e /tmp/ccF7NaNG.ltrans10.ltrans.o
 .text.unlikely.IoRead32
                0x0000000000000000        0x0 /tmp/ccF7NaNG.ltrans10.ltrans.o
 .text.unlikely.PciCf8Read32
                0x0000000000000000        0x0 /tmp/ccF7NaNG.ltrans10.ltrans.o
 .text.PciCf8Read32
                0x0000000000000000       0x98 /tmp/ccF7NaNG.ltrans10.ltrans.o
 .text.unlikely.PciCf8Read8
                0x0000000000000000        0x0 /tmp/ccF7NaNG.ltrans10.ltrans.o
 .text.PciCf8Read8
                0x0000000000000000       0x99 /tmp/ccF7NaNG.ltrans10.ltrans.o
 .text.unlikely.IoWrite16
                0x0000000000000000        0x0 /tmp/ccF7NaNG.ltrans10.ltrans.o
 .text.IoWrite16
                0x0000000000000000       0x3f /tmp/ccF7NaNG.ltrans10.ltrans.o
 .text.unlikely.IoRead16
                0x0000000000000000        0x0 /tmp/ccF7NaNG.ltrans10.ltrans.o
 .text.IoRead16
                0x0000000000000000       0x38 /tmp/ccF7NaNG.ltrans10.ltrans.o
 .text.unlikely.PciCf8Or16
                0x0000000000000000        0x0 /tmp/ccF7NaNG.ltrans10.ltrans.o
 .text.PciCf8Or16
                0x0000000000000000       0xb7 /tmp/ccF7NaNG.ltrans10.ltrans.o
 .text.unlikely.PciCf8Read16
                0x0000000000000000        0x0 /tmp/ccF7NaNG.ltrans10.ltrans.o
 .text.PciCf8Read16
                0x0000000000000000       0xa4 /tmp/ccF7NaNG.ltrans10.ltrans.o
 .text.unlikely.ReportDebugCodeEnabled
                0x0000000000000000        0x0 /tmp/ccF7NaNG.ltrans10.ltrans.o
 .text.unlikely.ReportErrorCodeEnabled
                0x0000000000000000        0x0 /tmp/ccF7NaNG.ltrans10.ltrans.o
 .text.unlikely.ReportProgressCodeEnabled
                0x0000000000000000        0x0 /tmp/ccF7NaNG.ltrans10.ltrans.o
 .text.unlikely.ReportStatusCode
                0x0000000000000000        0x0 /tmp/ccF7NaNG.ltrans10.ltrans.o
 .text.unlikely.GetNextHob
                0x0000000000000000        0x0 /tmp/ccF7NaNG.ltrans10.ltrans.o
 .text.unlikely.GetHobList
                0x0000000000000000        0x0 /tmp/ccF7NaNG.ltrans10.ltrans.o
 .text.unlikely.SetDevicePathEndNode
                0x0000000000000000        0x0 /tmp/ccF7NaNG.ltrans10.ltrans.o
 .text.unlikely.DevicePathNodeLength
                0x0000000000000000        0x0 /tmp/ccF7NaNG.ltrans10.ltrans.o
 .text.unlikely.NextDevicePathNode
                0x0000000000000000        0x0 /tmp/ccF7NaNG.ltrans10.ltrans.o
 .text.unlikely.DevicePathSubType
                0x0000000000000000        0x0 /tmp/ccF7NaNG.ltrans10.ltrans.o
 .text.unlikely.DevicePathType
                0x0000000000000000        0x0 /tmp/ccF7NaNG.ltrans10.ltrans.o
 .text.unlikely.IsDevicePathEndType
                0x0000000000000000        0x0 /tmp/ccF7NaNG.ltrans10.ltrans.o
 .text.unlikely.IsDevicePathEnd
                0x0000000000000000        0x0 /tmp/ccF7NaNG.ltrans10.ltrans.o
 .text.unlikely.IsDevicePathValid
                0x0000000000000000        0x0 /tmp/ccF7NaNG.ltrans10.ltrans.o
 .text.unlikely.UefiDevicePathLibGetDevicePathSize
                0x0000000000000000        0x0 /tmp/ccF7NaNG.ltrans10.ltrans.o
 .text.unlikely._ModuleEntryPoint
                0x0000000000000000        0x0 /tmp/ccF7NaNG.ltrans10.ltrans.o
 .text.unlikely.FreePool
                0x0000000000000000        0x0 /tmp/ccF7NaNG.ltrans10.ltrans.o
 .text.unlikely.InternalAllocatePool
                0x0000000000000000        0x0 /tmp/ccF7NaNG.ltrans10.ltrans.o
 .text.unlikely.InternalAllocateCopyPool
                0x0000000000000000        0x0 /tmp/ccF7NaNG.ltrans10.ltrans.o
 .text.unlikely.AllocateCopyPool
                0x0000000000000000        0x0 /tmp/ccF7NaNG.ltrans10.ltrans.o
 .text.unlikely.UefiDevicePathLibDuplicateDevicePath
                0x0000000000000000        0x0 /tmp/ccF7NaNG.ltrans10.ltrans.o
 .text.unlikely.InternalAllocateZeroPool
                0x0000000000000000        0x0 /tmp/ccF7NaNG.ltrans10.ltrans.o
 .text.unlikely.ReallocatePool
                0x0000000000000000        0x0 /tmp/ccF7NaNG.ltrans10.ltrans.o
 .text.unlikely.AllocateZeroPool
                0x0000000000000000        0x0 /tmp/ccF7NaNG.ltrans10.ltrans.o
 .text.unlikely.AllocatePool
                0x0000000000000000        0x0 /tmp/ccF7NaNG.ltrans10.ltrans.o
 .text.unlikely.UefiDevicePathLibAppendDevicePath
                0x0000000000000000        0x0 /tmp/ccF7NaNG.ltrans10.ltrans.o
 .text.unlikely.BasePrintLibFillBuffer
                0x0000000000000000        0x0 /tmp/ccF7NaNG.ltrans10.ltrans.o
 .text.unlikely.CompareGuid
                0x0000000000000000        0x0 /tmp/ccF7NaNG.ltrans10.ltrans.o
 .text.unlikely.GetNextGuidHob
                0x0000000000000000        0x0 /tmp/ccF7NaNG.ltrans10.ltrans.o
 .text.unlikely.CopyGuid
                0x0000000000000000        0x0 /tmp/ccF7NaNG.ltrans10.ltrans.o
 .text.unlikely.SetMem16.part.0.lto_priv.48
                0x0000000000000000        0x0 /tmp/ccF7NaNG.ltrans10.ltrans.o
 .text.unlikely.SetMem64.part.0.lto_priv.54
                0x0000000000000000        0x0 /tmp/ccF7NaNG.ltrans10.ltrans.o
 .comment       0x0000000000000000       0x35 /tmp/ccF7NaNG.ltrans10.ltrans.o
 .note.GNU-stack
                0x0000000000000000        0x0 /tmp/ccF7NaNG.ltrans10.ltrans.o
 .text          0x0000000000000000        0x0 /tmp/ccF7NaNG.ltrans11.ltrans.o
 .data          0x0000000000000000        0x0 /tmp/ccF7NaNG.ltrans11.ltrans.o
 .bss           0x0000000000000000        0x0 /tmp/ccF7NaNG.ltrans11.ltrans.o
 .text.unlikely.CoreGetDepexSectionAndPreProccess
                0x0000000000000000        0x0 /tmp/ccF7NaNG.ltrans11.ltrans.o
 .text.unlikely.CoreReleaseDispatcherLock
                0x0000000000000000        0x0 /tmp/ccF7NaNG.ltrans11.ltrans.o
 .text.unlikely.CoreAcquireDispatcherLock
                0x0000000000000000        0x0 /tmp/ccF7NaNG.ltrans11.ltrans.o
 .text.unlikely.CoreDispatcher
                0x0000000000000000        0x0 /tmp/ccF7NaNG.ltrans11.ltrans.o
 .text.unlikely.CoreTrust
                0x0000000000000000        0x0 /tmp/ccF7NaNG.ltrans11.ltrans.o
 .text.unlikely.CoreSchedule
                0x0000000000000000        0x0 /tmp/ccF7NaNG.ltrans11.ltrans.o
 .comment       0x0000000000000000       0x35 /tmp/ccF7NaNG.ltrans11.ltrans.o
 .note.GNU-stack
                0x0000000000000000        0x0 /tmp/ccF7NaNG.ltrans11.ltrans.o
 .text          0x0000000000000000        0x0 /tmp/ccF7NaNG.ltrans12.ltrans.o
 .data          0x0000000000000000        0x0 /tmp/ccF7NaNG.ltrans12.ltrans.o
 .bss           0x0000000000000000        0x0 /tmp/ccF7NaNG.ltrans12.ltrans.o
 .text.unlikely.CoreGetIoSpaceDescriptor
                0x0000000000000000        0x0 /tmp/ccF7NaNG.ltrans12.ltrans.o
 .text.unlikely.CoreRemoveIoSpace
                0x0000000000000000        0x0 /tmp/ccF7NaNG.ltrans12.ltrans.o
 .text.unlikely.CoreFreeIoSpace
                0x0000000000000000        0x0 /tmp/ccF7NaNG.ltrans12.ltrans.o
 .text.unlikely.CoreAddIoSpace
                0x0000000000000000        0x0 /tmp/ccF7NaNG.ltrans12.ltrans.o
 .text.unlikely.CoreSetMemorySpaceAttributes
                0x0000000000000000        0x0 /tmp/ccF7NaNG.ltrans12.ltrans.o
 .text.unlikely.CoreRemoveMemorySpace
                0x0000000000000000        0x0 /tmp/ccF7NaNG.ltrans12.ltrans.o
 .text.unlikely.CoreAllocateIoSpace
                0x0000000000000000        0x0 /tmp/ccF7NaNG.ltrans12.ltrans.o
 .text.unlikely.CoreSetMemorySpaceCapabilities
                0x0000000000000000        0x0 /tmp/ccF7NaNG.ltrans12.ltrans.o
 .text.unlikely.GetPoolIndexFromSize.lto_priv.60
                0x0000000000000000        0x0 /tmp/ccF7NaNG.ltrans12.ltrans.o
 .text.unlikely.CoreGetIoSpaceMap.part.7.lto_priv.63
                0x0000000000000000        0x0 /tmp/ccF7NaNG.ltrans12.ltrans.o
 .text.unlikely.CoreGetIoSpaceMap
                0x0000000000000000        0x0 /tmp/ccF7NaNG.ltrans12.ltrans.o
 .text.unlikely.CoreGetMemorySpaceMap.part.4.lto_priv.64
                0x0000000000000000        0x0 /tmp/ccF7NaNG.ltrans12.ltrans.o
 .text.unlikely.CoreGetMemorySpaceMap
                0x0000000000000000        0x0 /tmp/ccF7NaNG.ltrans12.ltrans.o
 .text.unlikely.CoreGetMemorySpaceDescriptor.part.3.lto_priv.68
                0x0000000000000000        0x0 /tmp/ccF7NaNG.ltrans12.ltrans.o
 .text.unlikely.CoreGetMemorySpaceDescriptor
                0x0000000000000000        0x0 /tmp/ccF7NaNG.ltrans12.ltrans.o
 .text.unlikely.CoreConvertResourceDescriptorHobAttributesToCapabilities
                0x0000000000000000        0x0 /tmp/ccF7NaNG.ltrans12.ltrans.o
 .text.unlikely.CoreInitializeGcdServices
                0x0000000000000000        0x0 /tmp/ccF7NaNG.ltrans12.ltrans.o
 .comment       0x0000000000000000       0x35 /tmp/ccF7NaNG.ltrans12.ltrans.o
 .note.GNU-stack
                0x0000000000000000        0x0 /tmp/ccF7NaNG.ltrans12.ltrans.o
 .text          0x0000000000000000        0x0 /tmp/ccF7NaNG.ltrans13.ltrans.o
 .data          0x0000000000000000        0x0 /tmp/ccF7NaNG.ltrans13.ltrans.o
 .bss           0x0000000000000000        0x0 /tmp/ccF7NaNG.ltrans13.ltrans.o
 .text.unlikely.CoreLocateHandle
                0x0000000000000000        0x0 /tmp/ccF7NaNG.ltrans13.ltrans.o
 .text.unlikely.CoreRegisterProtocolNotify
                0x0000000000000000        0x0 /tmp/ccF7NaNG.ltrans13.ltrans.o
 .text.unlikely.CoreDisconnectController
                0x0000000000000000        0x0 /tmp/ccF7NaNG.ltrans13.ltrans.o
 .text.unlikely.AddSortedDriverBindingProtocol
                0x0000000000000000        0x0 /tmp/ccF7NaNG.ltrans13.ltrans.o
 .text.unlikely.CoreConnectController
                0x0000000000000000        0x0 /tmp/ccF7NaNG.ltrans13.ltrans.o
 .text.unlikely.CoreRemoveInterfaceFromProtocol
                0x0000000000000000        0x0 /tmp/ccF7NaNG.ltrans13.ltrans.o
 .text.unlikely.CoreNotifyProtocolEntry
                0x0000000000000000        0x0 /tmp/ccF7NaNG.ltrans13.ltrans.o
 .text.unlikely.CoreReinstallProtocolInterface
                0x0000000000000000        0x0 /tmp/ccF7NaNG.ltrans13.ltrans.o
 .text.unlikely.CoreReleaseLock
                0x0000000000000000        0x0 /tmp/ccF7NaNG.ltrans13.ltrans.o
 .text.unlikely.CoreAcquireLock
                0x0000000000000000        0x0 /tmp/ccF7NaNG.ltrans13.ltrans.o
 .comment       0x0000000000000000       0x35 /tmp/ccF7NaNG.ltrans13.ltrans.o
 .note.GNU-stack
                0x0000000000000000        0x0 /tmp/ccF7NaNG.ltrans13.ltrans.o
 .text          0x0000000000000000        0x0 /tmp/ccF7NaNG.ltrans14.ltrans.o
 .data          0x0000000000000000        0x0 /tmp/ccF7NaNG.ltrans14.ltrans.o
 .bss           0x0000000000000000        0x0 /tmp/ccF7NaNG.ltrans14.ltrans.o
 .text.unlikely.CoreGetMemoryMap
                0x0000000000000000        0x0 /tmp/ccF7NaNG.ltrans14.ltrans.o
 .text.unlikely.CoreAllocatePages
                0x0000000000000000        0x0 /tmp/ccF7NaNG.ltrans14.ltrans.o
 .text.unlikely.CoreConvertPagesEx
                0x0000000000000000        0x0 /tmp/ccF7NaNG.ltrans14.ltrans.o
 .text.unlikely.CoreConvertPages
                0x0000000000000000        0x0 /tmp/ccF7NaNG.ltrans14.ltrans.o
 .text.unlikely.CoreFreePages
                0x0000000000000000        0x0 /tmp/ccF7NaNG.ltrans14.ltrans.o
 .rodata._gPcd_FixedAtBuild_PcdDebugPropertyMask
                0x0000000000000000        0x1 /tmp/ccF7NaNG.ltrans14.ltrans.o
 .comment       0x0000000000000000       0x35 /tmp/ccF7NaNG.ltrans14.ltrans.o
 .note.GNU-stack
                0x0000000000000000        0x0 /tmp/ccF7NaNG.ltrans14.ltrans.o
 .text          0x0000000000000000        0x0 /tmp/ccF7NaNG.ltrans15.ltrans.o
 .data          0x0000000000000000        0x0 /tmp/ccF7NaNG.ltrans15.ltrans.o
 .bss           0x0000000000000000        0x0 /tmp/ccF7NaNG.ltrans15.ltrans.o
 .text.unlikely.CoreGetNextLocateByRegisterNotify
                0x0000000000000000        0x0 /tmp/ccF7NaNG.ltrans15.ltrans.o
 .text.unlikely.CoreGetNextLocateByProtocol
                0x0000000000000000        0x0 /tmp/ccF7NaNG.ltrans15.ltrans.o
 .text.unlikely.CoreGetNextLocateAllHandles
                0x0000000000000000        0x0 /tmp/ccF7NaNG.ltrans15.ltrans.o
 .text.unlikely.CoreInstallProtocolInterface
                0x0000000000000000        0x0 /tmp/ccF7NaNG.ltrans15.ltrans.o
 .text.unlikely.CoreFindProtocolEntry
                0x0000000000000000        0x0 /tmp/ccF7NaNG.ltrans15.ltrans.o
 .text.unlikely.CoreFindProtocolInterface
                0x0000000000000000        0x0 /tmp/ccF7NaNG.ltrans15.ltrans.o
 .text.unlikely.CoreValidateHandle
                0x0000000000000000        0x0 /tmp/ccF7NaNG.ltrans15.ltrans.o
 .text.unlikely.CoreGetProtocolInterface
                0x0000000000000000        0x0 /tmp/ccF7NaNG.ltrans15.ltrans.o
 .text.unlikely.CoreReleaseProtocolLock
                0x0000000000000000        0x0 /tmp/ccF7NaNG.ltrans15.ltrans.o
 .text.unlikely.CoreAcquireProtocolLock
                0x0000000000000000        0x0 /tmp/ccF7NaNG.ltrans15.ltrans.o
 .text.unlikely.CoreCloseProtocol
                0x0000000000000000        0x0 /tmp/ccF7NaNG.ltrans15.ltrans.o
 .text.unlikely.CoreOpenProtocol
                0x0000000000000000        0x0 /tmp/ccF7NaNG.ltrans15.ltrans.o
 .text.unlikely.CoreHandleProtocol
                0x0000000000000000        0x0 /tmp/ccF7NaNG.ltrans15.ltrans.o
 .text.unlikely.CoreDisconnectControllersUsingProtocolInterface
                0x0000000000000000        0x0 /tmp/ccF7NaNG.ltrans15.ltrans.o
 .text.unlikely.CoreUninstallProtocolInterface
                0x0000000000000000        0x0 /tmp/ccF7NaNG.ltrans15.ltrans.o
 .text.unlikely.CoreUninstallMultipleProtocolInterfaces
                0x0000000000000000        0x0 /tmp/ccF7NaNG.ltrans15.ltrans.o
 .text.unlikely.CoreLocateHandleBuffer.part.3.lto_priv.65
                0x0000000000000000        0x0 /tmp/ccF7NaNG.ltrans15.ltrans.o
 .text.unlikely.CoreLocateDevicePath.part.4.lto_priv.73
                0x0000000000000000        0x0 /tmp/ccF7NaNG.ltrans15.ltrans.o
 .text.unlikely.CoreLocateDevicePath
                0x0000000000000000        0x0 /tmp/ccF7NaNG.ltrans15.ltrans.o
 .text.unlikely.CoreInstallMultipleProtocolInterfaces
                0x0000000000000000        0x0 /tmp/ccF7NaNG.ltrans15.ltrans.o
 .text.unlikely.CoreLocateHandleBuffer
                0x0000000000000000        0x0 /tmp/ccF7NaNG.ltrans15.ltrans.o
 .text.unlikely.CoreLocateProtocol.part.2.lto_priv.52
                0x0000000000000000        0x0 /tmp/ccF7NaNG.ltrans15.ltrans.o
 .text.unlikely.CoreLocateProtocol
                0x0000000000000000        0x0 /tmp/ccF7NaNG.ltrans15.ltrans.o
 .text.unlikely.CoreLocateHandle.part.1.lto_priv.51
                0x0000000000000000        0x0 /tmp/ccF7NaNG.ltrans15.ltrans.o
 .comment       0x0000000000000000       0x35 /tmp/ccF7NaNG.ltrans15.ltrans.o
 .note.GNU-stack
                0x0000000000000000        0x0 /tmp/ccF7NaNG.ltrans15.ltrans.o
 .text          0x0000000000000000        0x0 /tmp/ccF7NaNG.ltrans16.ltrans.o
 .data          0x0000000000000000        0x0 /tmp/ccF7NaNG.ltrans16.ltrans.o
 .bss           0x0000000000000000        0x0 /tmp/ccF7NaNG.ltrans16.ltrans.o
 .text.unlikely.ProfileProtocolSetRecordingState
                0x0000000000000000        0x0 /tmp/ccF7NaNG.ltrans16.ltrans.o
 .text.unlikely.ProfileProtocolGetRecordingState
                0x0000000000000000        0x0 /tmp/ccF7NaNG.ltrans16.ltrans.o
 .text.unlikely.ProfileProtocolUnregisterImage
                0x0000000000000000        0x0 /tmp/ccF7NaNG.ltrans16.ltrans.o
 .text.unlikely.ProfileProtocolRegisterImage
                0x0000000000000000        0x0 /tmp/ccF7NaNG.ltrans16.ltrans.o
 .text.unlikely.ProfileProtocolGetData
                0x0000000000000000        0x0 /tmp/ccF7NaNG.ltrans16.ltrans.o
 .text.unlikely.CoreUpdateProfileFree
                0x0000000000000000        0x0 /tmp/ccF7NaNG.ltrans16.ltrans.o
 .text.unlikely.IsMemoryTypeToGuard
                0x0000000000000000        0x0 /tmp/ccF7NaNG.ltrans16.ltrans.o
 .text.unlikely.UnsetGuardPage
                0x0000000000000000        0x0 /tmp/ccF7NaNG.ltrans16.ltrans.o
 .text.unlikely.SetGuardPage
                0x0000000000000000        0x0 /tmp/ccF7NaNG.ltrans16.ltrans.o
 .text.unlikely.FindGuardedMemoryMap
                0x0000000000000000        0x0 /tmp/ccF7NaNG.ltrans16.ltrans.o
 .text.unlikely.IsMemoryGuarded
                0x0000000000000000        0x0 /tmp/ccF7NaNG.ltrans16.ltrans.o
 .text.unlikely.GetGuardedMemoryBits
                0x0000000000000000        0x0 /tmp/ccF7NaNG.ltrans16.ltrans.o
 .text.unlikely.IsGuardPage
                0x0000000000000000        0x0 /tmp/ccF7NaNG.ltrans16.ltrans.o
 .text.unlikely.SetGuardForMemory
                0x0000000000000000        0x0 /tmp/ccF7NaNG.ltrans16.ltrans.o
 .text.unlikely.CoreUpdateProfile
                0x0000000000000000        0x0 /tmp/ccF7NaNG.ltrans16.ltrans.o
 .text.unlikely.ProfileProtocolRecord
                0x0000000000000000        0x0 /tmp/ccF7NaNG.ltrans16.ltrans.o
 .comment       0x0000000000000000       0x35 /tmp/ccF7NaNG.ltrans16.ltrans.o
 .note.GNU-stack
                0x0000000000000000        0x0 /tmp/ccF7NaNG.ltrans16.ltrans.o
 .text          0x0000000000000000        0x0 /tmp/ccF7NaNG.ltrans17.ltrans.o
 .data          0x0000000000000000        0x0 /tmp/ccF7NaNG.ltrans17.ltrans.o
 .bss           0x0000000000000000        0x0 /tmp/ccF7NaNG.ltrans17.ltrans.o
 .text.unlikely.GenericProtocolNotify
                0x0000000000000000        0x0 /tmp/ccF7NaNG.ltrans17.ltrans.o
 .text.unlikely.CoreNotifyOnProtocolEntryTable
                0x0000000000000000        0x0 /tmp/ccF7NaNG.ltrans17.ltrans.o
 .text.unlikely.CoreProcessFvImageFile
                0x0000000000000000        0x0 /tmp/ccF7NaNG.ltrans17.ltrans.o
 .text.unlikely.CoreFwVolEventProtocolNotify
                0x0000000000000000        0x0 /tmp/ccF7NaNG.ltrans17.ltrans.o
 .comment       0x0000000000000000       0x35 /tmp/ccF7NaNG.ltrans17.ltrans.o
 .note.GNU-stack
                0x0000000000000000        0x0 /tmp/ccF7NaNG.ltrans17.ltrans.o
 .text          0x0000000000000000        0x0 /tmp/ccF7NaNG.ltrans18.ltrans.o
 .data          0x0000000000000000        0x0 /tmp/ccF7NaNG.ltrans18.ltrans.o
 .bss           0x0000000000000000        0x0 /tmp/ccF7NaNG.ltrans18.ltrans.o
 .text.unlikely.VerifyGuidedSectionGuid
                0x0000000000000000        0x0 /tmp/ccF7NaNG.ltrans18.ltrans.o
 .text.unlikely.DumpModuleImageInfo
                0x0000000000000000        0x0 /tmp/ccF7NaNG.ltrans18.ltrans.o
 .text.unlikely.OpenSectionStreamEx
                0x0000000000000000        0x0 /tmp/ccF7NaNG.ltrans18.ltrans.o
 .text.unlikely.CreateChildNode
                0x0000000000000000        0x0 /tmp/ccF7NaNG.ltrans18.ltrans.o
 .text.unlikely.NotifyGuidedExtraction
                0x0000000000000000        0x0 /tmp/ccF7NaNG.ltrans18.ltrans.o
 .text.unlikely.CommonExceptionHandler
                0x0000000000000000        0x0 /tmp/ccF7NaNG.ltrans18.ltrans.o
 .comment       0x0000000000000000       0x35 /tmp/ccF7NaNG.ltrans18.ltrans.o
 .note.GNU-stack
                0x0000000000000000        0x0 /tmp/ccF7NaNG.ltrans18.ltrans.o
 .text          0x0000000000000000        0x0 /tmp/ccF7NaNG.ltrans19.ltrans.o
 .data          0x0000000000000000        0x0 /tmp/ccF7NaNG.ltrans19.ltrans.o
 .bss           0x0000000000000000        0x0 /tmp/ccF7NaNG.ltrans19.ltrans.o
 .text.unlikely.CoreReadImageFile
                0x0000000000000000        0x0 /tmp/ccF7NaNG.ltrans19.ltrans.o
 .text.unlikely.CustomGuidedSectionExtract
                0x0000000000000000        0x0 /tmp/ccF7NaNG.ltrans19.ltrans.o
 .text.CustomGuidedSectionExtract
                0x0000000000000000       0x62 /tmp/ccF7NaNG.ltrans19.ltrans.o
 .text.unlikely.CoreUnloadAndCloseImage
                0x0000000000000000        0x0 /tmp/ccF7NaNG.ltrans19.ltrans.o
 .text.unlikely.CoreLoadedImageInfo
                0x0000000000000000        0x0 /tmp/ccF7NaNG.ltrans19.ltrans.o
 .text.unlikely.GetMachineTypeName
                0x0000000000000000        0x0 /tmp/ccF7NaNG.ltrans19.ltrans.o
 .text.unlikely.FindStreamNode.part.3.lto_priv.53
                0x0000000000000000        0x0 /tmp/ccF7NaNG.ltrans19.ltrans.o
 .text.unlikely.CloseSectionStream
                0x0000000000000000        0x0 /tmp/ccF7NaNG.ltrans19.ltrans.o
 .comment       0x0000000000000000       0x35 /tmp/ccF7NaNG.ltrans19.ltrans.o
 .note.GNU-stack
                0x0000000000000000        0x0 /tmp/ccF7NaNG.ltrans19.ltrans.o
 .text          0x0000000000000000        0x0 /tmp/ccF7NaNG.ltrans20.ltrans.o
 .data          0x0000000000000000        0x0 /tmp/ccF7NaNG.ltrans20.ltrans.o
 .bss           0x0000000000000000        0x0 /tmp/ccF7NaNG.ltrans20.ltrans.o
 .text.unlikely.CoreFreeMemorySpace
                0x0000000000000000        0x0 /tmp/ccF7NaNG.ltrans20.ltrans.o
 .text.unlikely.CoreInternalAddMemorySpace
                0x0000000000000000        0x0 /tmp/ccF7NaNG.ltrans20.ltrans.o
 .text.unlikely.CoreAllocateSpace
                0x0000000000000000        0x0 /tmp/ccF7NaNG.ltrans20.ltrans.o
 .text.unlikely.CoreAllocateMemorySpace
                0x0000000000000000        0x0 /tmp/ccF7NaNG.ltrans20.ltrans.o
 .text.unlikely.CoreAddMemorySpace
                0x0000000000000000        0x0 /tmp/ccF7NaNG.ltrans20.ltrans.o
 .comment       0x0000000000000000       0x35 /tmp/ccF7NaNG.ltrans20.ltrans.o
 .note.GNU-stack
                0x0000000000000000        0x0 /tmp/ccF7NaNG.ltrans20.ltrans.o
 .text          0x0000000000000000        0x0 /tmp/ccF7NaNG.ltrans21.ltrans.o
 .data          0x0000000000000000        0x0 /tmp/ccF7NaNG.ltrans21.ltrans.o
 .bss           0x0000000000000000        0x0 /tmp/ccF7NaNG.ltrans21.ltrans.o
 .text.unlikely.CoreSetInterruptState
                0x0000000000000000        0x0 /tmp/ccF7NaNG.ltrans21.ltrans.o
 .text.unlikely.CoreRaiseTpl
                0x0000000000000000        0x0 /tmp/ccF7NaNG.ltrans21.ltrans.o
 .text.unlikely.CoreRestoreTpl
                0x0000000000000000        0x0 /tmp/ccF7NaNG.ltrans21.ltrans.o
 .text.unlikely.NotifyFwVolBlock
                0x0000000000000000        0x0 /tmp/ccF7NaNG.ltrans21.ltrans.o
 .comment       0x0000000000000000       0x35 /tmp/ccF7NaNG.ltrans21.ltrans.o
 .note.GNU-stack
                0x0000000000000000        0x0 /tmp/ccF7NaNG.ltrans21.ltrans.o
 .text          0x0000000000000000        0x0 /tmp/ccF7NaNG.ltrans22.ltrans.o
 .data          0x0000000000000000        0x0 /tmp/ccF7NaNG.ltrans22.ltrans.o
 .bss           0x0000000000000000        0x0 /tmp/ccF7NaNG.ltrans22.ltrans.o
 .text.unlikely.CoreSetWatchdogTimer
                0x0000000000000000        0x0 /tmp/ccF7NaNG.ltrans22.ltrans.o
 .text.unlikely.CoreInternalWaitForTick
                0x0000000000000000        0x0 /tmp/ccF7NaNG.ltrans22.ltrans.o
 .text.unlikely.CoreInstallConfigurationTable
                0x0000000000000000        0x0 /tmp/ccF7NaNG.ltrans22.ltrans.o
 .text.unlikely.CoreStall
                0x0000000000000000        0x0 /tmp/ccF7NaNG.ltrans22.ltrans.o
 .text.unlikely.CoreUnloadImage
                0x0000000000000000        0x0 /tmp/ccF7NaNG.ltrans22.ltrans.o
 .text.unlikely.CoreUnloadImageEx
                0x0000000000000000        0x0 /tmp/ccF7NaNG.ltrans22.ltrans.o
 .text.unlikely.CoreLoadImageEx
                0x0000000000000000        0x0 /tmp/ccF7NaNG.ltrans22.ltrans.o
 .text.unlikely.CoreLoadImage
                0x0000000000000000        0x0 /tmp/ccF7NaNG.ltrans22.ltrans.o
 .text.unlikely.GetImageRecordByAddress.lto_priv.72
                0x0000000000000000        0x0 /tmp/ccF7NaNG.ltrans22.ltrans.o
 .text.unlikely.MergeMemoryMap
                0x0000000000000000        0x0 /tmp/ccF7NaNG.ltrans22.ltrans.o
 .text.unlikely.EfiSizeToPages.lto_priv.71
                0x0000000000000000        0x0 /tmp/ccF7NaNG.ltrans22.ltrans.o
 .text.unlikely.CoreExit
                0x0000000000000000        0x0 /tmp/ccF7NaNG.ltrans22.ltrans.o
 .text.unlikely.CoreStartImage
                0x0000000000000000        0x0 /tmp/ccF7NaNG.ltrans22.ltrans.o
 .comment       0x0000000000000000       0x35 /tmp/ccF7NaNG.ltrans22.ltrans.o
 .note.GNU-stack
                0x0000000000000000        0x0 /tmp/ccF7NaNG.ltrans22.ltrans.o
 .text          0x0000000000000000        0x0 /tmp/ccF7NaNG.ltrans23.ltrans.o
 .data          0x0000000000000000        0x0 /tmp/ccF7NaNG.ltrans23.ltrans.o
 .bss           0x0000000000000000        0x0 /tmp/ccF7NaNG.ltrans23.ltrans.o
 .text.unlikely.CoreEfiNotAvailableYetArg5
                0x0000000000000000        0x0 /tmp/ccF7NaNG.ltrans23.ltrans.o
 .text.unlikely.CoreEfiNotAvailableYetArg4
                0x0000000000000000        0x0 /tmp/ccF7NaNG.ltrans23.ltrans.o
 .text.unlikely.CoreEfiNotAvailableYetArg3
                0x0000000000000000        0x0 /tmp/ccF7NaNG.ltrans23.ltrans.o
 .text.unlikely.CoreEfiNotAvailableYetArg2
                0x0000000000000000        0x0 /tmp/ccF7NaNG.ltrans23.ltrans.o
 .text.unlikely.CoreEfiNotAvailableYetArg1
                0x0000000000000000        0x0 /tmp/ccF7NaNG.ltrans23.ltrans.o
 .text.unlikely.DxeMainUefiDecompressGetInfo
                0x0000000000000000        0x0 /tmp/ccF7NaNG.ltrans23.ltrans.o
 .text.unlikely.DxeMainUefiDecompress
                0x0000000000000000        0x0 /tmp/ccF7NaNG.ltrans23.ltrans.o
 .text.unlikely.ReportStatusCodeWithExtendedData.constprop.22
                0x0000000000000000        0x0 /tmp/ccF7NaNG.ltrans23.ltrans.o
 .text.unlikely.PciAnd16.constprop.11
                0x0000000000000000        0x0 /tmp/ccF7NaNG.ltrans23.ltrans.o
 .text.PciAnd16.constprop.11
                0x0000000000000000       0xb7 /tmp/ccF7NaNG.ltrans23.ltrans.o
 .text.unlikely.FindChildNode.constprop.1
                0x0000000000000000        0x0 /tmp/ccF7NaNG.ltrans23.ltrans.o
 .text.unlikely.CalculateEfiHdrCrc
                0x0000000000000000        0x0 /tmp/ccF7NaNG.ltrans23.ltrans.o
 .text.unlikely.CoreExitBootServices
                0x0000000000000000        0x0 /tmp/ccF7NaNG.ltrans23.ltrans.o
 .comment       0x0000000000000000       0x35 /tmp/ccF7NaNG.ltrans23.ltrans.o
 .note.GNU-stack
                0x0000000000000000        0x0 /tmp/ccF7NaNG.ltrans23.ltrans.o
 .text          0x0000000000000000        0x0 /tmp/ccF7NaNG.ltrans24.ltrans.o
 .data          0x0000000000000000        0x0 /tmp/ccF7NaNG.ltrans24.ltrans.o
 .bss           0x0000000000000000        0x0 /tmp/ccF7NaNG.ltrans24.ltrans.o
 .text.unlikely.InstallMemoryAttributesTableOnReadyToBoot
                0x0000000000000000        0x0 /tmp/ccF7NaNG.ltrans24.ltrans.o
 .text.unlikely.SetUefiImageMemoryAttributes
                0x0000000000000000        0x0 /tmp/ccF7NaNG.ltrans24.ltrans.o
 .text.unlikely.ProtectUefiImage
                0x0000000000000000        0x0 /tmp/ccF7NaNG.ltrans24.ltrans.o
 .text.unlikely.InstallMemoryAttributesTableOnMemoryAllocation
                0x0000000000000000        0x0 /tmp/ccF7NaNG.ltrans24.ltrans.o
 .comment       0x0000000000000000       0x35 /tmp/ccF7NaNG.ltrans24.ltrans.o
 .note.GNU-stack
                0x0000000000000000        0x0 /tmp/ccF7NaNG.ltrans24.ltrans.o
 .text          0x0000000000000000        0x0 /tmp/ccF7NaNG.ltrans25.ltrans.o
 .data          0x0000000000000000        0x0 /tmp/ccF7NaNG.ltrans25.ltrans.o
 .bss           0x0000000000000000        0x0 /tmp/ccF7NaNG.ltrans25.ltrans.o
 .text.unlikely.GetFileNameFromFilePath
                0x0000000000000000        0x0 /tmp/ccF7NaNG.ltrans25.ltrans.o
 .text.unlikely.GetMemoryProfileAllocInfoFromAddress
                0x0000000000000000        0x0 /tmp/ccF7NaNG.ltrans25.ltrans.o
 .text.unlikely.GetMemoryProfileDriverInfoFromAddress
                0x0000000000000000        0x0 /tmp/ccF7NaNG.ltrans25.ltrans.o
 .text.unlikely.CoreUpdateProfileAllocate
                0x0000000000000000        0x0 /tmp/ccF7NaNG.ltrans25.ltrans.o
 .text.unlikely.NeedRecordThisDriver
                0x0000000000000000        0x0 /tmp/ccF7NaNG.ltrans25.ltrans.o
 .text.unlikely.InternalPeCoffGetEntryPoint
                0x0000000000000000        0x0 /tmp/ccF7NaNG.ltrans25.ltrans.o
 .text.unlikely.UnregisterMemoryProfileImage
                0x0000000000000000        0x0 /tmp/ccF7NaNG.ltrans25.ltrans.o
 .text.unlikely.BuildDriverInfo
                0x0000000000000000        0x0 /tmp/ccF7NaNG.ltrans25.ltrans.o
 .text.unlikely.RegisterMemoryProfileImage
                0x0000000000000000        0x0 /tmp/ccF7NaNG.ltrans25.ltrans.o
 .text.unlikely.PeCoffLoaderGetPeHeaderMagicValue
                0x0000000000000000        0x0 /tmp/ccF7NaNG.ltrans25.ltrans.o
 .text.unlikely.InternalPeCoffGetSubsystem
                0x0000000000000000        0x0 /tmp/ccF7NaNG.ltrans25.ltrans.o
 .text.unlikely.CoreInternalAllocatePages.part.3.lto_priv.55
                0x0000000000000000        0x0 /tmp/ccF7NaNG.ltrans25.ltrans.o
 .comment       0x0000000000000000       0x35 /tmp/ccF7NaNG.ltrans25.ltrans.o
 .note.GNU-stack
                0x0000000000000000        0x0 /tmp/ccF7NaNG.ltrans25.ltrans.o
 .text          0x0000000000000000        0x0 /tmp/ccF7NaNG.ltrans26.ltrans.o
 .data          0x0000000000000000        0x0 /tmp/ccF7NaNG.ltrans26.ltrans.o
 .bss           0x0000000000000000        0x0 /tmp/ccF7NaNG.ltrans26.ltrans.o
 .text.unlikely.CoreNotifyEvent
                0x0000000000000000        0x0 /tmp/ccF7NaNG.ltrans26.ltrans.o
 .text.unlikely.CoreInsertEventTimer
                0x0000000000000000        0x0 /tmp/ccF7NaNG.ltrans26.ltrans.o
 .text.unlikely.PopBool
                0x0000000000000000        0x0 /tmp/ccF7NaNG.ltrans26.ltrans.o
 .text.unlikely.PushBool
                0x0000000000000000        0x0 /tmp/ccF7NaNG.ltrans26.ltrans.o
 .text.unlikely.CoreReleaseEventLock
                0x0000000000000000        0x0 /tmp/ccF7NaNG.ltrans26.ltrans.o
 .text.unlikely.CoreAcquireEventLock
                0x0000000000000000        0x0 /tmp/ccF7NaNG.ltrans26.ltrans.o
 .text.unlikely.CoreCheckEvent
                0x0000000000000000        0x0 /tmp/ccF7NaNG.ltrans26.ltrans.o
 .text.unlikely.CoreCreateEventInternal
                0x0000000000000000        0x0 /tmp/ccF7NaNG.ltrans26.ltrans.o
 .text.unlikely.CoreCreateEventEx
                0x0000000000000000        0x0 /tmp/ccF7NaNG.ltrans26.ltrans.o
 .text.unlikely.CoreCreateEvent
                0x0000000000000000        0x0 /tmp/ccF7NaNG.ltrans26.ltrans.o
 .text.unlikely.CoreNotifySignalList
                0x0000000000000000        0x0 /tmp/ccF7NaNG.ltrans26.ltrans.o
 .text.unlikely.CoreSignalEvent
                0x0000000000000000        0x0 /tmp/ccF7NaNG.ltrans26.ltrans.o
 .text.unlikely.CoreWaitForEvent
                0x0000000000000000        0x0 /tmp/ccF7NaNG.ltrans26.ltrans.o
 .text.unlikely.CoreSetTimer
                0x0000000000000000        0x0 /tmp/ccF7NaNG.ltrans26.ltrans.o
 .text.unlikely.CoreCloseEvent
                0x0000000000000000        0x0 /tmp/ccF7NaNG.ltrans26.ltrans.o
 .text.unlikely.CoreTimerTick
                0x0000000000000000        0x0 /tmp/ccF7NaNG.ltrans26.ltrans.o
 .text.unlikely.CoreCheckTimers
                0x0000000000000000        0x0 /tmp/ccF7NaNG.ltrans26.ltrans.o
 .comment       0x0000000000000000       0x35 /tmp/ccF7NaNG.ltrans26.ltrans.o
 .note.GNU-stack
                0x0000000000000000        0x0 /tmp/ccF7NaNG.ltrans26.ltrans.o
 .text          0x0000000000000000        0x0 /tmp/ccF7NaNG.ltrans27.ltrans.o
 .data          0x0000000000000000        0x0 /tmp/ccF7NaNG.ltrans27.ltrans.o
 .bss           0x0000000000000000        0x0 /tmp/ccF7NaNG.ltrans27.ltrans.o
 .text.unlikely.DisableNullDetectionAtTheEndOfDxe
                0x0000000000000000        0x0 /tmp/ccF7NaNG.ltrans27.ltrans.o
 .text.unlikely.CoreAcquireLockOrFail
                0x0000000000000000        0x0 /tmp/ccF7NaNG.ltrans27.ltrans.o
 .text.unlikely.SortMemoryMap.lto_priv.66.lto_priv.70
                0x0000000000000000        0x0 /tmp/ccF7NaNG.ltrans27.ltrans.o
 .text.unlikely.GetPermissionAttributeForMemoryType.lto_priv.49
                0x0000000000000000        0x0 /tmp/ccF7NaNG.ltrans27.ltrans.o
 .text.unlikely.ApplyMemoryProtectionPolicy
                0x0000000000000000        0x0 /tmp/ccF7NaNG.ltrans27.ltrans.o
 .text.unlikely.MemoryProtectionCpuArchProtocolNotify
                0x0000000000000000        0x0 /tmp/ccF7NaNG.ltrans27.ltrans.o
 .comment       0x0000000000000000       0x35 /tmp/ccF7NaNG.ltrans27.ltrans.o
 .note.GNU-stack
                0x0000000000000000        0x0 /tmp/ccF7NaNG.ltrans27.ltrans.o
 .text          0x0000000000000000        0x0 /tmp/ccF7NaNG.ltrans28.ltrans.o
 .data          0x0000000000000000        0x0 /tmp/ccF7NaNG.ltrans28.ltrans.o
 .bss           0x0000000000000000        0x0 /tmp/ccF7NaNG.ltrans28.ltrans.o
 .text.unlikely.CoreFvToDevicePath
                0x0000000000000000        0x0 /tmp/ccF7NaNG.ltrans28.ltrans.o
 .text.unlikely.CoreAddToDriverList
                0x0000000000000000        0x0 /tmp/ccF7NaNG.ltrans28.ltrans.o
 .text.unlikely.CoreInsertOnScheduledQueueWhileProcessingBeforeAndAfter
                0x0000000000000000        0x0 /tmp/ccF7NaNG.ltrans28.ltrans.o
 .comment       0x0000000000000000       0x35 /tmp/ccF7NaNG.ltrans28.ltrans.o
 .note.GNU-stack
                0x0000000000000000        0x0 /tmp/ccF7NaNG.ltrans28.ltrans.o
 .text          0x0000000000000000        0x0 /tmp/ccF7NaNG.ltrans29.ltrans.o
 .data          0x0000000000000000        0x0 /tmp/ccF7NaNG.ltrans29.ltrans.o
 .bss           0x0000000000000000        0x0 /tmp/ccF7NaNG.ltrans29.ltrans.o
 .text.unlikely.InternalReportStatusCodeEx.constprop.46
                0x0000000000000000        0x0 /tmp/ccF7NaNG.ltrans29.ltrans.o
 .comment       0x0000000000000000       0x35 /tmp/ccF7NaNG.ltrans29.ltrans.o
 .note.GNU-stack
                0x0000000000000000        0x0 /tmp/ccF7NaNG.ltrans29.ltrans.o
 .text          0x0000000000000000        0x0 BaseDebugPrintErrorLevelLib.obj (symbol from plugin)
 .text          0x0000000000000000        0x0 PcdLib.obj (symbol from plugin)
 .text          0x0000000000000000        0x0 DebugLib.obj (symbol from plugin)
 .text          0x0000000000000000        0x0 CheckSum.obj (symbol from plugin)
 .text          0x0000000000000000        0x0 SwitchStack.obj (symbol from plugin)
 .text          0x0000000000000000        0x0 SwapBytes64.obj (symbol from plugin)
 .text          0x0000000000000000        0x0 SwapBytes32.obj (symbol from plugin)
 .text          0x0000000000000000        0x0 SwapBytes16.obj (symbol from plugin)
 .text          0x0000000000000000        0x0 LongJump.obj (symbol from plugin)
 .text          0x0000000000000000        0x0 SetJump.obj (symbol from plugin)
 .text          0x0000000000000000        0x0 RShiftU64.obj (symbol from plugin)
 .text          0x0000000000000000        0x0 RRotU64.obj (symbol from plugin)
 .text          0x0000000000000000        0x0 RRotU32.obj (symbol from plugin)
 .text          0x0000000000000000        0x0 MultU64x64.obj (symbol from plugin)
 .text          0x0000000000000000        0x0 MultU64x32.obj (symbol from plugin)
 .text          0x0000000000000000        0x0 MultS64x64.obj (symbol from plugin)
 .text          0x0000000000000000        0x0 ModU64x32.obj (symbol from plugin)
 .text          0x0000000000000000        0x0 LShiftU64.obj (symbol from plugin)
 .text          0x0000000000000000        0x0 LRotU64.obj (symbol from plugin)
 .text          0x0000000000000000        0x0 LRotU32.obj (symbol from plugin)
 .text          0x0000000000000000        0x0 LowBitSet64.obj (symbol from plugin)
 .text          0x0000000000000000        0x0 LowBitSet32.obj (symbol from plugin)
 .text          0x0000000000000000        0x0 HighBitSet64.obj (symbol from plugin)
 .text          0x0000000000000000        0x0 HighBitSet32.obj (symbol from plugin)
 .text          0x0000000000000000        0x0 GetPowerOfTwo64.obj (symbol from plugin)
 .text          0x0000000000000000        0x0 GetPowerOfTwo32.obj (symbol from plugin)
 .text          0x0000000000000000        0x0 DivU64x64Remainder.obj (symbol from plugin)
 .text          0x0000000000000000        0x0 DivU64x32Remainder.obj (symbol from plugin)
 .text          0x0000000000000000        0x0 DivU64x32.obj (symbol from plugin)
 .text          0x0000000000000000        0x0 DivS64x64Remainder.obj (symbol from plugin)
 .text          0x0000000000000000        0x0 ARShiftU64.obj (symbol from plugin)
 .text          0x0000000000000000        0x0 BitField.obj (symbol from plugin)
 .text          0x0000000000000000        0x0 CpuDeadLoop.obj (symbol from plugin)
 .text          0x0000000000000000        0x0 Cpu.obj (symbol from plugin)
 .text          0x0000000000000000        0x0 LinkedList.obj (symbol from plugin)
 .text          0x0000000000000000        0x0 SafeString.obj (symbol from plugin)
 .text          0x0000000000000000        0x0 String.obj (symbol from plugin)
 .text          0x0000000000000000        0x0 FilePaths.obj (symbol from plugin)
 .text          0x0000000000000000      0x204 /mnt/c/SerranonOS/UEFI/vUDK2017/Build/DuetPkgX64/DEBUG_GCC5/X64/MdePkg/Library/BaseLib/BaseLib/OUTPUT/BaseLib.lib(Thunk16.obj)
 .data          0x0000000000000000        0xa /mnt/c/SerranonOS/UEFI/vUDK2017/Build/DuetPkgX64/DEBUG_GCC5/X64/MdePkg/Library/BaseLib/BaseLib/OUTPUT/BaseLib.lib(Thunk16.obj)
 .text          0x0000000000000000        0x6 /mnt/c/SerranonOS/UEFI/vUDK2017/Build/DuetPkgX64/DEBUG_GCC5/X64/MdePkg/Library/BaseLib/BaseLib/OUTPUT/BaseLib.lib(WriteTr.obj)
 .text          0x0000000000000000        0x0 Non-existing.obj (symbol from plugin)
 .text          0x0000000000000000        0x0 Math64.obj (symbol from plugin)
 .text          0x0000000000000000        0x0 Unaligned.obj (symbol from plugin)
 .text          0x0000000000000000        0x0 X86WriteIdtr.obj (symbol from plugin)
 .text          0x0000000000000000        0x0 X86WriteGdtr.obj (symbol from plugin)
 .text          0x0000000000000000        0x0 X86Thunk.obj (symbol from plugin)
 .text          0x0000000000000000        0x0 X86ReadIdtr.obj (symbol from plugin)
 .text          0x0000000000000000        0x0 X86ReadGdtr.obj (symbol from plugin)
 .text          0x0000000000000000        0x0 X86Msr.obj (symbol from plugin)
 .text          0x0000000000000000        0x0 X86GetInterruptState.obj (symbol from plugin)
 .text          0x0000000000000000        0x0 X86FxSave.obj (symbol from plugin)
 .text          0x0000000000000000        0x0 X86FxRestore.obj (symbol from plugin)
 .text          0x0000000000000000        0x0 X86EnablePaging64.obj (symbol from plugin)
 .text          0x0000000000000000        0x0 X86EnablePaging32.obj (symbol from plugin)
 .text          0x0000000000000000        0x0 X86DisablePaging64.obj (symbol from plugin)
 .text          0x0000000000000000        0x0 X86DisablePaging32.obj (symbol from plugin)
 .text          0x0000000000000000        0x0 X86RdRand.obj (symbol from plugin)
 .text          0x0000000000000000        0x0 GccInline.obj (symbol from plugin)
 .text          0x0000000000000000        0xf /mnt/c/SerranonOS/UEFI/vUDK2017/Build/DuetPkgX64/DEBUG_GCC5/X64/MdePkg/Library/BaseLib/BaseLib/OUTPUT/BaseLib.lib(SwitchStack.obj)
 .text          0x0000000000000000        0x3 /mnt/c/SerranonOS/UEFI/vUDK2017/Build/DuetPkgX64/DEBUG_GCC5/X64/MdePkg/Library/BaseLib/BaseLib/OUTPUT/BaseLib.lib(EnableDisableInterrupts.obj)
 .text          0x0000000000000000       0x61 /mnt/c/SerranonOS/UEFI/vUDK2017/Build/DuetPkgX64/DEBUG_GCC5/X64/MdePkg/Library/BaseLib/BaseLib/OUTPUT/BaseLib.lib(DisablePaging64.obj)
 .text          0x0000000000000000       0x13 /mnt/c/SerranonOS/UEFI/vUDK2017/Build/DuetPkgX64/DEBUG_GCC5/X64/MdePkg/Library/BaseLib/BaseLib/OUTPUT/BaseLib.lib(EnableCache.obj)
 .text          0x0000000000000000       0x13 /mnt/c/SerranonOS/UEFI/vUDK2017/Build/DuetPkgX64/DEBUG_GCC5/X64/MdePkg/Library/BaseLib/BaseLib/OUTPUT/BaseLib.lib(DisableCache.obj)
 .text          0x0000000000000000       0x36 /mnt/c/SerranonOS/UEFI/vUDK2017/Build/DuetPkgX64/DEBUG_GCC5/X64/MdePkg/Library/BaseLib/BaseLib/OUTPUT/BaseLib.lib(RdRand.obj)
 .text          0x0000000000000000        0x0 ChkStkGcc.obj (symbol from plugin)
 .text          0x0000000000000000        0x0 SetMem.obj (symbol from plugin)
 .text          0x0000000000000000        0x0 ScanMem64Wrapper.obj (symbol from plugin)
 .text          0x0000000000000000        0x0 ScanMem32Wrapper.obj (symbol from plugin)
 .text          0x0000000000000000        0x0 ScanMem16Wrapper.obj (symbol from plugin)
 .text          0x0000000000000000        0x0 ScanMem8Wrapper.obj (symbol from plugin)
 .text          0x0000000000000000        0x0 ZeroMemWrapper.obj (symbol from plugin)
 .text          0x0000000000000000        0x0 CompareMemWrapper.obj (symbol from plugin)
 .text          0x0000000000000000        0x0 SetMem64Wrapper.obj (symbol from plugin)
 .text          0x0000000000000000        0x0 SetMem32Wrapper.obj (symbol from plugin)
 .text          0x0000000000000000        0x0 SetMem16Wrapper.obj (symbol from plugin)
 .text          0x0000000000000000        0x0 SetMemWrapper.obj (symbol from plugin)
 .text          0x0000000000000000        0x0 CopyMemWrapper.obj (symbol from plugin)
 .text          0x0000000000000000        0x0 IsZeroBufferWrapper.obj (symbol from plugin)
 .text          0x0000000000000000        0x0 MemLibGeneric.obj (symbol from plugin)
 .text          0x0000000000000000        0x0 MemLibGuid.obj (symbol from plugin)
 .text          0x0000000000000000        0x0 CopyMem.obj (symbol from plugin)
 .text          0x0000000000000000        0x0 PrintLibInternal.obj (symbol from plugin)
 .text          0x0000000000000000        0x0 PrintLib.obj (symbol from plugin)
 .text          0x0000000000000000        0x0 MemoryAllocationLib.obj (symbol from plugin)
 .text          0x0000000000000000        0x0 DxeCoreMemoryProfileLibNull.obj (symbol from plugin)
 .text          0x0000000000000000        0x0 DxeCoreEntryPoint.obj (symbol from plugin)
 .text          0x0000000000000000        0x0 DevicePathUtilities.obj (symbol from plugin)
 .text          0x0000000000000000        0x0 DevicePathToText.obj (symbol from plugin)
 .text          0x0000000000000000        0x0 DevicePathFromText.obj (symbol from plugin)
 .text          0x0000000000000000        0x0 UefiDevicePathLib.obj (symbol from plugin)
 .text          0x0000000000000000        0x0 UefiBootServicesTableLib.obj (symbol from plugin)
 .text          0x0000000000000000        0x0 HobLib.obj (symbol from plugin)
 .text          0x0000000000000000        0x0 ReportStatusCodeLib.obj (symbol from plugin)
 .text          0x0000000000000000        0x0 DxeSupport.obj (symbol from plugin)
 .text          0x0000000000000000        0x0 IoLibMmioBuffer.obj (symbol from plugin)
 .text          0x0000000000000000        0x0 IoHighLevel.obj (symbol from plugin)
 .text          0x0000000000000000        0x0 IoLibGcc.obj (symbol from plugin)
 .text          0x0000000000000000        0x0 IoLib.obj (symbol from plugin)
 .text          0x0000000000000000       0x50 /mnt/c/SerranonOS/UEFI/vUDK2017/Build/DuetPkgX64/DEBUG_GCC5/X64/MdePkg/Library/BaseIoLibIntrinsic/BaseIoLibIntrinsic/OUTPUT/BaseIoLibIntrinsic.lib(IoFifo.obj)
 .text          0x0000000000000000        0x0 PciCf8Lib.obj (symbol from plugin)
 .text          0x0000000000000000        0x0 UefiRuntimeServicesTableLib.obj (symbol from plugin)
 .text          0x0000000000000000        0x0 X86TimerLib.obj (symbol from plugin)
 .text          0x0000000000000000        0x0 PciLib.obj (symbol from plugin)
 .text          0x0000000000000000        0x0 BasePlatformHookLibNull.obj (symbol from plugin)
 .text          0x0000000000000000        0x0 PeCoffExtraActionLib.obj (symbol from plugin)
 .text          0x0000000000000000        0x0 UefiLibPrint.obj (symbol from plugin)
 .text          0x0000000000000000        0x0 UefiNotTiano.obj (symbol from plugin)
 .text          0x0000000000000000        0x0 UefiDriverModel.obj (symbol from plugin)
 .text          0x0000000000000000        0x0 Console.obj (symbol from plugin)
 .text          0x0000000000000000        0x0 UefiLib.obj (symbol from plugin)
 .text          0x0000000000000000        0x0 BaseXApicLib.obj (symbol from plugin)
 .text          0x0000000000000000        0x0 InternalGetSpinLockProperties.obj (symbol from plugin)
 .text          0x0000000000000000        0x0 GccInline.obj (symbol from plugin)
 .text          0x0000000000000000        0x0 SynchronizationGcc.obj (symbol from plugin)
 .text          0x0000000000000000        0x0 BaseSerialPortLib16550.obj (symbol from plugin)
 .text          0x0000000000000000        0x0 PeCoffGetEntryPoint.obj (symbol from plugin)
 .text          0x0000000000000000        0x0 X86Cache.obj (symbol from plugin)
 .text          0x0000000000000000        0x0 BaseUefiDecompressLib.obj (symbol from plugin)
 .text          0x0000000000000000        0x0 PerformanceLib.obj (symbol from plugin)
 .text          0x0000000000000000        0x0 BasePeCoff.obj (symbol from plugin)
 .text          0x0000000000000000        0x0 PeCoffLoaderEx.obj (symbol from plugin)
 .text          0x0000000000000000        0x0 DxeExtractGuidedSectionLib.obj (symbol from plugin)
 .text          0x0000000000000000        0x0 DxeServicesLib.obj (symbol from plugin)
 .text          0x0000000000000000        0x0 DebugAgentLibNull.obj (symbol from plugin)
 .data          0x0000000000000000        0x0 /mnt/c/SerranonOS/UEFI/vUDK2017/Build/DuetPkgX64/DEBUG_GCC5/X64/UefiCpuPkg/Library/CpuExceptionHandlerLib/DxeCpuExceptionHandlerLib/OUTPUT/DxeCpuExceptionHandlerLib.lib(ExceptionHandlerAsm.obj)
 .text          0x0000000000000000        0x0 ArchExceptionHandler.obj (symbol from plugin)
 .text          0x0000000000000000        0x0 CpuExceptionCommon.obj (symbol from plugin)
 .text          0x0000000000000000        0x0 PeiDxeSmmCpuException.obj (symbol from plugin)
 .text          0x0000000000000000        0x0 DxeException.obj (symbol from plugin)
 .text          0x0000000000000000        0x0 CoreSectionExtraction.obj (symbol from plugin)
 .text          0x0000000000000000        0x0 Image.obj (symbol from plugin)
 .text          0x0000000000000000        0x0 DebugImageInfo.obj (symbol from plugin)
 .text          0x0000000000000000        0x0 Stall.obj (symbol from plugin)
 .text          0x0000000000000000        0x0 SetWatchdogTimer.obj (symbol from plugin)
 .text          0x0000000000000000        0x0 InstallConfigurationTable.obj (symbol from plugin)
 .text          0x0000000000000000        0x0 PropertiesTable.obj (symbol from plugin)
 .text          0x0000000000000000        0x0 MemoryAttributesTable.obj (symbol from plugin)
 .text          0x0000000000000000        0x0 MemoryProtection.obj (symbol from plugin)
 .text          0x0000000000000000        0x0 Library.obj (symbol from plugin)
 .text          0x0000000000000000        0x0 DriverSupport.obj (symbol from plugin)
 .text          0x0000000000000000        0x0 Notify.obj (symbol from plugin)
 .text          0x0000000000000000        0x0 Locate.obj (symbol from plugin)
 .text          0x0000000000000000        0x0 Handle.obj (symbol from plugin)
 .text          0x0000000000000000        0x0 Gcd.obj (symbol from plugin)
 .text          0x0000000000000000        0x0 Pool.obj (symbol from plugin)
 .text          0x0000000000000000        0x0 Page.obj (symbol from plugin)
 .text          0x0000000000000000        0x0 MemData.obj (symbol from plugin)
 .text          0x0000000000000000        0x0 MemoryProfileRecord.obj (symbol from plugin)
 .text          0x0000000000000000        0x0 HeapGuard.obj (symbol from plugin)
 .text          0x0000000000000000        0x0 FwVolBlock.obj (symbol from plugin)
 .text          0x0000000000000000        0x0 FwVolWrite.obj (symbol from plugin)
 .text          0x0000000000000000        0x0 FwVolRead.obj (symbol from plugin)
 .text          0x0000000000000000        0x0 FwVolAttrib.obj (symbol from plugin)
 .text          0x0000000000000000        0x0 Ffs.obj (symbol from plugin)
 .text          0x0000000000000000        0x0 FwVol.obj (symbol from plugin)
 .text          0x0000000000000000        0x0 Tpl.obj (symbol from plugin)
 .text          0x0000000000000000        0x0 Timer.obj (symbol from plugin)
 .text          0x0000000000000000        0x0 Event.obj (symbol from plugin)
 .text          0x0000000000000000        0x0 Dependency.obj (symbol from plugin)
 .text          0x0000000000000000        0x0 Dispatcher.obj (symbol from plugin)
 .text          0x0000000000000000        0x0 DxeProtocolNotify.obj (symbol from plugin)
 .text          0x0000000000000000        0x0 DxeMain.obj (symbol from plugin)
 .text          0x0000000000000000        0x0 AutoGen.obj (symbol from plugin)

Memory Configuration

Name             Origin             Length             Attributes
*default*        0x0000000000000000 0xffffffffffffffff

Linker script and memory map

LOAD /tmp/ccF7NaNG.ltrans0.ltrans.o
LOAD /tmp/ccF7NaNG.ltrans1.ltrans.o
LOAD /tmp/ccF7NaNG.ltrans2.ltrans.o
LOAD /tmp/ccF7NaNG.ltrans3.ltrans.o
LOAD /tmp/ccF7NaNG.ltrans4.ltrans.o
LOAD /tmp/ccF7NaNG.ltrans5.ltrans.o
LOAD /tmp/ccF7NaNG.ltrans6.ltrans.o
LOAD /tmp/ccF7NaNG.ltrans7.ltrans.o
LOAD /tmp/ccF7NaNG.ltrans8.ltrans.o
LOAD /tmp/ccF7NaNG.ltrans9.ltrans.o
LOAD /tmp/ccF7NaNG.ltrans10.ltrans.o
LOAD /tmp/ccF7NaNG.ltrans11.ltrans.o
LOAD /tmp/ccF7NaNG.ltrans12.ltrans.o
LOAD /tmp/ccF7NaNG.ltrans13.ltrans.o
LOAD /tmp/ccF7NaNG.ltrans14.ltrans.o
LOAD /tmp/ccF7NaNG.ltrans15.ltrans.o
LOAD /tmp/ccF7NaNG.ltrans16.ltrans.o
LOAD /tmp/ccF7NaNG.ltrans17.ltrans.o
LOAD /tmp/ccF7NaNG.ltrans18.ltrans.o
LOAD /tmp/ccF7NaNG.ltrans19.ltrans.o
LOAD /tmp/ccF7NaNG.ltrans20.ltrans.o
LOAD /tmp/ccF7NaNG.ltrans21.ltrans.o
LOAD /tmp/ccF7NaNG.ltrans22.ltrans.o
LOAD /tmp/ccF7NaNG.ltrans23.ltrans.o
LOAD /tmp/ccF7NaNG.ltrans24.ltrans.o
LOAD /tmp/ccF7NaNG.ltrans25.ltrans.o
LOAD /tmp/ccF7NaNG.ltrans26.ltrans.o
LOAD /tmp/ccF7NaNG.ltrans27.ltrans.o
LOAD /tmp/ccF7NaNG.ltrans28.ltrans.o
LOAD /tmp/ccF7NaNG.ltrans29.ltrans.o
START GROUP
LOAD /mnt/c/SerranonOS/UEFI/vUDK2017/Build/DuetPkgX64/DEBUG_GCC5/X64/MdePkg/Library/BaseDebugPrintErrorLevelLib/BaseDebugPrintErrorLevelLib/OUTPUT/BaseDebugPrintErrorLevelLib.lib
LOAD /mnt/c/SerranonOS/UEFI/vUDK2017/Build/DuetPkgX64/DEBUG_GCC5/X64/MdePkg/Library/BasePcdLibNull/BasePcdLibNull/OUTPUT/BasePcdLibNull.lib
LOAD /mnt/c/SerranonOS/UEFI/vUDK2017/Build/DuetPkgX64/DEBUG_GCC5/X64/MdeModulePkg/Library/PeiDxeDebugLibReportStatusCode/PeiDxeDebugLibReportStatusCode/OUTPUT/PeiDxeDebugLibReportStatusCode.lib
LOAD /mnt/c/SerranonOS/UEFI/vUDK2017/Build/DuetPkgX64/DEBUG_GCC5/X64/MdePkg/Library/BaseLib/BaseLib/OUTPUT/BaseLib.lib
LOAD /mnt/c/SerranonOS/UEFI/vUDK2017/Build/DuetPkgX64/DEBUG_GCC5/X64/MdePkg/Library/BaseMemoryLib/BaseMemoryLib/OUTPUT/BaseMemoryLib.lib
LOAD /mnt/c/SerranonOS/UEFI/vUDK2017/Build/DuetPkgX64/DEBUG_GCC5/X64/MdePkg/Library/BasePrintLib/BasePrintLib/OUTPUT/BasePrintLib.lib
LOAD /mnt/c/SerranonOS/UEFI/vUDK2017/Build/DuetPkgX64/DEBUG_GCC5/X64/MdeModulePkg/Library/DxeCoreMemoryAllocationLib/DxeCoreMemoryAllocationLib/OUTPUT/DxeCoreMemoryAllocationLib.lib
LOAD /mnt/c/SerranonOS/UEFI/vUDK2017/Build/DuetPkgX64/DEBUG_GCC5/X64/MdePkg/Library/DxeCoreEntryPoint/DxeCoreEntryPoint/OUTPUT/DxeCoreEntryPoint.lib
LOAD /mnt/c/SerranonOS/UEFI/vUDK2017/Build/DuetPkgX64/DEBUG_GCC5/X64/MdePkg/Library/UefiDevicePathLib/UefiDevicePathLib/OUTPUT/UefiDevicePathLib.lib
LOAD /mnt/c/SerranonOS/UEFI/vUDK2017/Build/DuetPkgX64/DEBUG_GCC5/X64/MdePkg/Library/UefiBootServicesTableLib/UefiBootServicesTableLib/OUTPUT/UefiBootServicesTableLib.lib
LOAD /mnt/c/SerranonOS/UEFI/vUDK2017/Build/DuetPkgX64/DEBUG_GCC5/X64/MdePkg/Library/DxeCoreHobLib/DxeCoreHobLib/OUTPUT/DxeCoreHobLib.lib
LOAD /mnt/c/SerranonOS/UEFI/vUDK2017/Build/DuetPkgX64/DEBUG_GCC5/X64/DuetPkg/Library/DxeCoreReportStatusCodeLibFromHob/DxeCoreReportStatusCodeLibFromHob/OUTPUT/DxeCoreReportStatusCodeLibFromHob.lib
LOAD /mnt/c/SerranonOS/UEFI/vUDK2017/Build/DuetPkgX64/DEBUG_GCC5/X64/MdePkg/Library/BaseIoLibIntrinsic/BaseIoLibIntrinsic/OUTPUT/BaseIoLibIntrinsic.lib
LOAD /mnt/c/SerranonOS/UEFI/vUDK2017/Build/DuetPkgX64/DEBUG_GCC5/X64/MdePkg/Library/BasePciCf8Lib/BasePciCf8Lib/OUTPUT/BasePciCf8Lib.lib
LOAD /mnt/c/SerranonOS/UEFI/vUDK2017/Build/DuetPkgX64/DEBUG_GCC5/X64/MdePkg/Library/UefiRuntimeServicesTableLib/UefiRuntimeServicesTableLib/OUTPUT/UefiRuntimeServicesTableLib.lib
LOAD /mnt/c/SerranonOS/UEFI/vUDK2017/Build/DuetPkgX64/DEBUG_GCC5/X64/DuetPkg/Library/DuetTimerLib/DuetTimerLib/OUTPUT/DuetTimerLib.lib
LOAD /mnt/c/SerranonOS/UEFI/vUDK2017/Build/DuetPkgX64/DEBUG_GCC5/X64/MdePkg/Library/BasePciLibCf8/BasePciLibCf8/OUTPUT/BasePciLibCf8.lib
LOAD /mnt/c/SerranonOS/UEFI/vUDK2017/Build/DuetPkgX64/DEBUG_GCC5/X64/MdeModulePkg/Library/BasePlatformHookLibNull/BasePlatformHookLibNull/OUTPUT/BasePlatformHookLibNull.lib
LOAD /mnt/c/SerranonOS/UEFI/vUDK2017/Build/DuetPkgX64/DEBUG_GCC5/X64/MdePkg/Library/BasePeCoffExtraActionLibNull/BasePeCoffExtraActionLibNull/OUTPUT/PeCoffExtraActionLibNull.lib
LOAD /mnt/c/SerranonOS/UEFI/vUDK2017/Build/DuetPkgX64/DEBUG_GCC5/X64/MdePkg/Library/UefiLib/UefiLib/OUTPUT/UefiLib.lib
LOAD /mnt/c/SerranonOS/UEFI/vUDK2017/Build/DuetPkgX64/DEBUG_GCC5/X64/UefiCpuPkg/Library/BaseXApicLib/BaseXApicLib/OUTPUT/BaseXApicLib.lib
LOAD /mnt/c/SerranonOS/UEFI/vUDK2017/Build/DuetPkgX64/DEBUG_GCC5/X64/MdePkg/Library/BaseSynchronizationLib/BaseSynchronizationLib/OUTPUT/BaseSynchronizationLib.lib
LOAD /mnt/c/SerranonOS/UEFI/vUDK2017/Build/DuetPkgX64/DEBUG_GCC5/X64/MdeModulePkg/Library/BaseSerialPortLib16550/BaseSerialPortLib16550/OUTPUT/BaseSerialPortLib16550.lib
LOAD /mnt/c/SerranonOS/UEFI/vUDK2017/Build/DuetPkgX64/DEBUG_GCC5/X64/MdePkg/Library/BasePeCoffGetEntryPointLib/BasePeCoffGetEntryPointLib/OUTPUT/BasePeCoffGetEntryPointLib.lib
LOAD /mnt/c/SerranonOS/UEFI/vUDK2017/Build/DuetPkgX64/DEBUG_GCC5/X64/MdePkg/Library/BaseCacheMaintenanceLib/BaseCacheMaintenanceLib/OUTPUT/BaseCacheMaintenanceLib.lib
LOAD /mnt/c/SerranonOS/UEFI/vUDK2017/Build/DuetPkgX64/DEBUG_GCC5/X64/MdePkg/Library/BaseUefiDecompressLib/BaseUefiDecompressLib/OUTPUT/BaseUefiDecompressLib.lib
LOAD /mnt/c/SerranonOS/UEFI/vUDK2017/Build/DuetPkgX64/DEBUG_GCC5/X64/MdePkg/Library/BasePerformanceLibNull/BasePerformanceLibNull/OUTPUT/BasePerformanceLibNull.lib
LOAD /mnt/c/SerranonOS/UEFI/vUDK2017/Build/DuetPkgX64/DEBUG_GCC5/X64/MdePkg/Library/BasePeCoffLib/BasePeCoffLib/OUTPUT/BasePeCoffLib.lib
LOAD /mnt/c/SerranonOS/UEFI/vUDK2017/Build/DuetPkgX64/DEBUG_GCC5/X64/MdePkg/Library/DxeExtractGuidedSectionLib/DxeExtractGuidedSectionLib/OUTPUT/DxeExtractGuidedSectionLib.lib
LOAD /mnt/c/SerranonOS/UEFI/vUDK2017/Build/DuetPkgX64/DEBUG_GCC5/X64/MdePkg/Library/DxeServicesLib/DxeServicesLib/OUTPUT/DxeServicesLib.lib
LOAD /mnt/c/SerranonOS/UEFI/vUDK2017/Build/DuetPkgX64/DEBUG_GCC5/X64/MdeModulePkg/Library/DebugAgentLibNull/DebugAgentLibNull/OUTPUT/DebugAgentLibNull.lib
LOAD /mnt/c/SerranonOS/UEFI/vUDK2017/Build/DuetPkgX64/DEBUG_GCC5/X64/UefiCpuPkg/Library/CpuExceptionHandlerLib/DxeCpuExceptionHandlerLib/OUTPUT/DxeCpuExceptionHandlerLib.lib
LOAD /mnt/c/SerranonOS/UEFI/vUDK2017/Build/DuetPkgX64/DEBUG_GCC5/X64/MdeModulePkg/Core/Dxe/DxeMain/OUTPUT/DxeCore.lib
END GROUP
                0x0000000000000228                PECOFF_HEADER_SIZE = 0x228
                0x0000000000000228                . = PECOFF_HEADER_SIZE

.text           0x0000000000000240    0x2407d
 *(.text .text.* .stub .gnu.linkonce.t.*)
 .text.DxeMain  0x0000000000000240     0x1a11 /tmp/ccF7NaNG.ltrans0.ltrans.o
                0x0000000000000240                DxeMain
 .text.CoreLoadImageCommon
                0x0000000000001c51     0x27dd /tmp/ccF7NaNG.ltrans1.ltrans.o
                0x0000000000001c51                CoreLoadImageCommon
 .text.AsciiStrnLenS
                0x000000000000442e       0x26 /tmp/ccF7NaNG.ltrans2.ltrans.o
                0x000000000000442e                AsciiStrnLenS
 .text.CpuDeadLoop
                0x0000000000004454       0x1c /tmp/ccF7NaNG.ltrans2.ltrans.o
                0x0000000000004454                CpuDeadLoop
 .text.DebugCodeEnabled
                0x0000000000004470        0x3 /tmp/ccF7NaNG.ltrans2.ltrans.o
                0x0000000000004470                DebugCodeEnabled
 .text.DebugPrintEnabled
                0x0000000000004473        0x3 /tmp/ccF7NaNG.ltrans2.ltrans.o
                0x0000000000004473                DebugPrintEnabled
 .text.DebugAssertEnabled
                0x0000000000004476        0x3 /tmp/ccF7NaNG.ltrans2.ltrans.o
                0x0000000000004476                DebugAssertEnabled
 .text.DebugAssert
                0x0000000000004479      0x14d /tmp/ccF7NaNG.ltrans2.ltrans.o
                0x0000000000004479                DebugAssert
 .text.CompareMem.part.0.lto_priv.58
                0x00000000000045c6       0xcf /tmp/ccF7NaNG.ltrans2.ltrans.o
                0x00000000000045c6                CompareMem.part.0.lto_priv.58
 .text.AsmReadIdtr
                0x0000000000004695       0x37 /tmp/ccF7NaNG.ltrans2.ltrans.o
                0x0000000000004695                AsmReadIdtr
 .text.WriteUnaligned64
                0x00000000000046cc       0x3f /tmp/ccF7NaNG.ltrans2.ltrans.o
                0x00000000000046cc                WriteUnaligned64
 .text.ReadUnaligned64
                0x000000000000470b       0x37 /tmp/ccF7NaNG.ltrans2.ltrans.o
                0x000000000000470b                ReadUnaligned64
 .text.ReadUnaligned32
                0x0000000000004742       0x36 /tmp/ccF7NaNG.ltrans2.ltrans.o
                0x0000000000004742                ReadUnaligned32
 .text.ReadUnaligned16
                0x0000000000004778       0x37 /tmp/ccF7NaNG.ltrans2.ltrans.o
                0x0000000000004778                ReadUnaligned16
 .text.AsciiStrLen
                0x00000000000047af       0x85 /tmp/ccF7NaNG.ltrans2.ltrans.o
                0x00000000000047af                AsciiStrLen
 .text.AsciiStrSize
                0x0000000000004834       0x11 /tmp/ccF7NaNG.ltrans2.ltrans.o
                0x0000000000004834                AsciiStrSize
 .text.InitializeListHead
                0x0000000000004845       0x3e /tmp/ccF7NaNG.ltrans2.ltrans.o
                0x0000000000004845                InitializeListHead
 .text.InternalBaseLibIsListValid
                0x0000000000004883       0x9e /tmp/ccF7NaNG.ltrans2.ltrans.o
                0x0000000000004883                InternalBaseLibIsListValid
 .text.IsListEmpty
                0x0000000000004921       0x3e /tmp/ccF7NaNG.ltrans2.ltrans.o
                0x0000000000004921                IsListEmpty
 .text.RemoveEntryList
                0x000000000000495f       0x50 /tmp/ccF7NaNG.ltrans2.ltrans.o
                0x000000000000495f                RemoveEntryList
 .text.GetFirstNode
                0x00000000000049af       0x3b /tmp/ccF7NaNG.ltrans2.ltrans.o
                0x00000000000049af                GetFirstNode
 .text.IsNodeInList
                0x00000000000049ea       0x90 /tmp/ccF7NaNG.ltrans2.ltrans.o
                0x00000000000049ea                IsNodeInList
 .text.IsNodeAtEnd
                0x0000000000004a7a       0xc4 /tmp/ccF7NaNG.ltrans2.ltrans.o
                0x0000000000004a7a                IsNodeAtEnd
 .text.GetNextNode
                0x0000000000004b3e       0x5f /tmp/ccF7NaNG.ltrans2.ltrans.o
                0x0000000000004b3e                GetNextNode
 .text.InsertTailList
                0x0000000000004b9d       0x76 /tmp/ccF7NaNG.ltrans2.ltrans.o
                0x0000000000004b9d                InsertTailList
 .text.InsertHeadList
                0x0000000000004c13       0x75 /tmp/ccF7NaNG.ltrans2.ltrans.o
                0x0000000000004c13                InsertHeadList
 .text.DivU64x32Remainder
                0x0000000000004c88       0x56 /tmp/ccF7NaNG.ltrans2.ltrans.o
                0x0000000000004c88                DivU64x32Remainder
 .text.LShiftU64
                0x0000000000004cde       0x43 /tmp/ccF7NaNG.ltrans2.ltrans.o
                0x0000000000004cde                LShiftU64
 .text.InternalMemSetMem
                0x0000000000004d21       0xed /tmp/ccF7NaNG.ltrans2.ltrans.o
                0x0000000000004d21                InternalMemSetMem
 .text.ZeroMem  0x0000000000004e0e       0x72 /tmp/ccF7NaNG.ltrans2.ltrans.o
                0x0000000000004e0e                ZeroMem
 .text.RShiftU64
                0x0000000000004e80       0x43 /tmp/ccF7NaNG.ltrans2.ltrans.o
                0x0000000000004e80                RShiftU64
 .text.InternalAssertJumpBuffer
                0x0000000000004ec3       0x56 /tmp/ccF7NaNG.ltrans2.ltrans.o
                0x0000000000004ec3                InternalAssertJumpBuffer
 .text.CalculateSum16
                0x0000000000004f19       0xac /tmp/ccF7NaNG.ltrans2.ltrans.o
                0x0000000000004f19                CalculateSum16
 .text.CalculateSum8
                0x0000000000004fc5       0x6d /tmp/ccF7NaNG.ltrans2.ltrans.o
                0x0000000000004fc5                CalculateSum8
 .text.DebugClearMemory
                0x0000000000005032       0x49 /tmp/ccF7NaNG.ltrans2.ltrans.o
                0x0000000000005032                DebugClearMemory
 .text.DebugPrint
                0x000000000000507b      0x32d /tmp/ccF7NaNG.ltrans2.ltrans.o
                0x000000000000507b                DebugPrint
 .text.PeCoffLoaderImageReadFromMemory
                0x00000000000053a8       0x8e /tmp/ccF7NaNG.ltrans3.ltrans.o
                0x00000000000053a8                PeCoffLoaderImageReadFromMemory
 .text.InternalPrintMessage
                0x0000000000005436      0x1a9 /tmp/ccF7NaNG.ltrans3.ltrans.o
                0x0000000000005436                InternalPrintMessage
 .text.PeCoffLoaderGetImageInfo.part.0.lto_priv.75
                0x00000000000055df      0x968 /tmp/ccF7NaNG.ltrans3.ltrans.o
                0x00000000000055df                PeCoffLoaderGetImageInfo.part.0.lto_priv.75
 .text.PeCoffLoaderImageAddress
                0x0000000000005f47       0x20 /tmp/ccF7NaNG.ltrans3.ltrans.o
                0x0000000000005f47                PeCoffLoaderImageAddress
 .text.InstallPropertiesTable
                0x0000000000005f67      0x1be /tmp/ccF7NaNG.ltrans4.ltrans.o
                0x0000000000005f67                InstallPropertiesTable
 .text.CoreGetMemoryMapWithSeparatedImageSection
                0x0000000000006125      0x7b6 /tmp/ccF7NaNG.ltrans4.ltrans.o
 .text.InstallMemoryAttributesTable
                0x00000000000068db      0x4de /tmp/ccF7NaNG.ltrans4.ltrans.o
                0x00000000000068db                InstallMemoryAttributesTable
 .text.IsImageRecordCodeSectionValid
                0x0000000000006db9       0xe8 /tmp/ccF7NaNG.ltrans4.ltrans.o
                0x0000000000006db9                IsImageRecordCodeSectionValid
 .text.SortImageRecordCodeSection
                0x0000000000006ea1       0xe0 /tmp/ccF7NaNG.ltrans4.ltrans.o
                0x0000000000006ea1                SortImageRecordCodeSection
 .text.SetPropertiesTableSectionAlignment.lto_priv.74
                0x0000000000006f81       0x75 /tmp/ccF7NaNG.ltrans4.ltrans.o
                0x0000000000006f81                SetPropertiesTableSectionAlignment.lto_priv.74
 .text.CoreFindFreePagesI.part.0.constprop.34
                0x0000000000006ff6      0x1eb /tmp/ccF7NaNG.ltrans5.ltrans.o
 .text.BasePrintLibSPrintMarker.constprop.37
                0x00000000000071e1      0xc6f /tmp/ccF7NaNG.ltrans5.ltrans.o
                0x00000000000071e1                BasePrintLibSPrintMarker.constprop.37
 .text.BasePrintLibSPrint.constprop.36
                0x0000000000007e50       0xb6 /tmp/ccF7NaNG.ltrans5.ltrans.o
 .text.FindFreePages.constprop.31
                0x0000000000007f06      0x228 /tmp/ccF7NaNG.ltrans5.ltrans.o
                0x0000000000007f06                FindFreePages.constprop.31
 .text.CoreAllocatePoolPages.constprop.32
                0x000000000000812e       0x7a /tmp/ccF7NaNG.ltrans5.ltrans.o
                0x000000000000812e                CoreAllocatePoolPages.constprop.32
 .text.CoreAllocatePoolPagesI.constprop.30
                0x00000000000081a8       0x7b /tmp/ccF7NaNG.ltrans5.ltrans.o
                0x00000000000081a8                CoreAllocatePoolPagesI.constprop.30
 .text.MergeMemoryMapDescriptor.constprop.29
                0x0000000000008223       0x6b /tmp/ccF7NaNG.ltrans5.ltrans.o
                0x0000000000008223                MergeMemoryMapDescriptor.constprop.29
 .text.CoreNewDebugImageInfoEntry.constprop.24
                0x000000000000828e      0x14a /tmp/ccF7NaNG.ltrans5.ltrans.o
                0x000000000000828e                CoreNewDebugImageInfoEntry.constprop.24
 .text.EfiEventEmptyFunction
                0x00000000000083d8        0x1 /tmp/ccF7NaNG.ltrans6.ltrans.o
                0x00000000000083d8                EfiEventEmptyFunction
 .text.InvalidateInstructionCacheRange
                0x00000000000083d9       0x4a /tmp/ccF7NaNG.ltrans6.ltrans.o
                0x00000000000083d9                InvalidateInstructionCacheRange
 .text.LocalApicBaseAddressMsrSupported
                0x0000000000008423       0x3d /tmp/ccF7NaNG.ltrans6.ltrans.o
 .text.GetApicMode
                0x0000000000008460      0x107 /tmp/ccF7NaNG.ltrans6.ltrans.o
 .text.PerformanceMeasurementEnabled
                0x0000000000008567        0xa /tmp/ccF7NaNG.ltrans6.ltrans.o
                0x0000000000008567                PerformanceMeasurementEnabled
 .text.UefiDecompressGetInfo
                0x0000000000008571       0xb0 /tmp/ccF7NaNG.ltrans6.ltrans.o
                0x0000000000008571                UefiDecompressGetInfo
 .text.MakeTable
                0x0000000000008621      0x2a4 /tmp/ccF7NaNG.ltrans6.ltrans.o
                0x0000000000008621                MakeTable
 .text.FillBuf  0x00000000000088c5       0x80 /tmp/ccF7NaNG.ltrans6.ltrans.o
                0x00000000000088c5                FillBuf
 .text.GetBits  0x0000000000008945       0x19 /tmp/ccF7NaNG.ltrans6.ltrans.o
                0x0000000000008945                GetBits
 .text.ReadPTLen
                0x000000000000895e      0x1a4 /tmp/ccF7NaNG.ltrans6.ltrans.o
                0x000000000000895e                ReadPTLen
 .text.PeCoffLoaderGetPdbPointer
                0x0000000000008b02      0x14d /tmp/ccF7NaNG.ltrans6.ltrans.o
                0x0000000000008b02                PeCoffLoaderGetPdbPointer
 .text.PeCoffLoaderGetEntryPoint
                0x0000000000008c4f       0x9b /tmp/ccF7NaNG.ltrans6.ltrans.o
                0x0000000000008c4f                PeCoffLoaderGetEntryPoint
 .text.SerialPortReadRegister
                0x0000000000008cea       0x12 /tmp/ccF7NaNG.ltrans6.ltrans.o
                0x0000000000008cea                SerialPortReadRegister
 .text.SerialPortWritable
                0x0000000000008cfc       0x35 /tmp/ccF7NaNG.ltrans6.ltrans.o
                0x0000000000008cfc                SerialPortWritable
 .text.ReleaseSpinLock
                0x0000000000008d31       0x7d /tmp/ccF7NaNG.ltrans6.ltrans.o
                0x0000000000008d31                ReleaseSpinLock
 .text.AcquireSpinLockOrFail
                0x0000000000008dae       0x88 /tmp/ccF7NaNG.ltrans6.ltrans.o
                0x0000000000008dae                AcquireSpinLockOrFail
 .text.GetApicId
                0x0000000000008e36      0x214 /tmp/ccF7NaNG.ltrans6.ltrans.o
                0x0000000000008e36                GetApicId
 .text.EfiCreateProtocolNotifyEvent
                0x000000000000904a      0x19c /tmp/ccF7NaNG.ltrans6.ltrans.o
                0x000000000000904a                EfiCreateProtocolNotifyEvent
 .text.EfiInitializeFwVolDevicepathNode
                0x00000000000091e6       0x6e /tmp/ccF7NaNG.ltrans6.ltrans.o
                0x00000000000091e6                EfiInitializeFwVolDevicepathNode
 .text.EfiGetNameGuidFromFwVolDevicePathNode
                0x0000000000009254       0x54 /tmp/ccF7NaNG.ltrans6.ltrans.o
                0x0000000000009254                EfiGetNameGuidFromFwVolDevicePathNode
 .text.PeCoffLoaderRelocateImageExtraAction
                0x00000000000092a8       0x39 /tmp/ccF7NaNG.ltrans6.ltrans.o
                0x00000000000092a8                PeCoffLoaderRelocateImageExtraAction
 .text.GetPerformanceCounter
                0x00000000000092e1       0xb9 /tmp/ccF7NaNG.ltrans6.ltrans.o
                0x00000000000092e1                GetPerformanceCounter
 .text.FvSetVolumeInfo
                0x000000000000939a        0xb /tmp/ccF7NaNG.ltrans7.ltrans.o
                0x000000000000939a                FvSetVolumeInfo
 .text.FvGetVolumeInfo
                0x00000000000093a5        0xb /tmp/ccF7NaNG.ltrans7.ltrans.o
                0x00000000000093a5                FvGetVolumeInfo
 .text.FwVolBlockSetAttributes
                0x00000000000093b0        0xb /tmp/ccF7NaNG.ltrans7.ltrans.o
 .text.FvSetVolumeAttributes
                0x00000000000093bb        0xb /tmp/ccF7NaNG.ltrans7.ltrans.o
                0x00000000000093bb                FvSetVolumeAttributes
 .text.FvWriteFile
                0x00000000000093c6        0xb /tmp/ccF7NaNG.ltrans7.ltrans.o
                0x00000000000093c6                FvWriteFile
 .text.FwVolBlockWriteBlock
                0x00000000000093d1        0xb /tmp/ccF7NaNG.ltrans7.ltrans.o
 .text.FwVolBlockEraseBlock
                0x00000000000093dc       0x1a /tmp/ccF7NaNG.ltrans7.ltrans.o
 .text.FvGetVolumeAttributes
                0x00000000000093f6       0x5e /tmp/ccF7NaNG.ltrans7.ltrans.o
                0x00000000000093f6                FvGetVolumeAttributes
 .text.FfsAttributes2FvFileAttributes
                0x0000000000009454       0x2f /tmp/ccF7NaNG.ltrans7.ltrans.o
 .text.FwVolBlockGetBlockSize
                0x0000000000009483       0x91 /tmp/ccF7NaNG.ltrans7.ltrans.o
 .text.FwVolBlockGetPhysicalAddress
                0x0000000000009514       0x5d /tmp/ccF7NaNG.ltrans7.ltrans.o
 .text.FwVolBlockReadBlock
                0x0000000000009571       0xc5 /tmp/ccF7NaNG.ltrans7.ltrans.o
 .text.FwVolBlockGetAttributes
                0x0000000000009636       0x4e /tmp/ccF7NaNG.ltrans7.ltrans.o
 .text.FvGetNextFile
                0x0000000000009684      0x1c4 /tmp/ccF7NaNG.ltrans7.ltrans.o
                0x0000000000009684                FvGetNextFile
 .text.FvReadFile
                0x0000000000009848      0x28b /tmp/ccF7NaNG.ltrans7.ltrans.o
                0x0000000000009848                FvReadFile
 .text.FvReadFileSection
                0x0000000000009ad3      0x420 /tmp/ccF7NaNG.ltrans7.ltrans.o
                0x0000000000009ad3                FvReadFileSection
 .text.ReadFvbData
                0x0000000000009ef3      0x155 /tmp/ccF7NaNG.ltrans7.ltrans.o
                0x0000000000009ef3                ReadFvbData
 .text.GetFwVolHeader
                0x000000000000a048      0x130 /tmp/ccF7NaNG.ltrans7.ltrans.o
                0x000000000000a048                GetFwVolHeader
 .text.GetFileState
                0x000000000000a178       0x22 /tmp/ccF7NaNG.ltrans7.ltrans.o
                0x000000000000a178                GetFileState
 .text.ProduceFVBProtocolOnBuffer
                0x000000000000a19a      0x26d /tmp/ccF7NaNG.ltrans7.ltrans.o
                0x000000000000a19a                ProduceFVBProtocolOnBuffer
 .text.CoreProcessFirmwareVolume
                0x000000000000a407      0x12d /tmp/ccF7NaNG.ltrans7.ltrans.o
                0x000000000000a407                CoreProcessFirmwareVolume
 .text.AdjustMemoryF.part.2.lto_priv.61
                0x000000000000a534       0x84 /tmp/ccF7NaNG.ltrans7.ltrans.o
                0x000000000000a534                AdjustMemoryF.part.2.lto_priv.61
 .text.UnsetGuardForMemory.part.1.lto_priv.59
                0x000000000000a5b8      0x1e6 /tmp/ccF7NaNG.ltrans7.ltrans.o
                0x000000000000a5b8                UnsetGuardForMemory.part.1.lto_priv.59
 .text.Uint64ToBinString
                0x000000000000a79e       0x44 /tmp/ccF7NaNG.ltrans7.ltrans.o
                0x000000000000a79e                Uint64ToBinString
 .text.CoreConvertPagesWithGuard
                0x000000000000a7e2       0x8f /tmp/ccF7NaNG.ltrans7.ltrans.o
                0x000000000000a7e2                CoreConvertPagesWithGuard
 .text.LookupPoolHead
                0x000000000000a871      0x103 /tmp/ccF7NaNG.ltrans8.ltrans.o
 .text.CoreAllocatePoolI
                0x000000000000a974      0x441 /tmp/ccF7NaNG.ltrans8.ltrans.o
 .text.CoreFreeMemoryMapStack
                0x000000000000adb5      0x266 /tmp/ccF7NaNG.ltrans8.ltrans.o
                0x000000000000adb5                CoreFreeMemoryMapStack
 .text.RemoveMemoryMapEntry
                0x000000000000b01b       0x42 /tmp/ccF7NaNG.ltrans8.ltrans.o
                0x000000000000b01b                RemoveMemoryMapEntry
 .text.CoreAddRange
                0x000000000000b05d      0x24e /tmp/ccF7NaNG.ltrans8.ltrans.o
                0x000000000000b05d                CoreAddRange
 .text.CoreReleaseMemoryLock
                0x000000000000b2ab        0xc /tmp/ccF7NaNG.ltrans8.ltrans.o
                0x000000000000b2ab                CoreReleaseMemoryLock
 .text.CoreAcquireMemoryLock
                0x000000000000b2b7        0xc /tmp/ccF7NaNG.ltrans8.ltrans.o
                0x000000000000b2b7                CoreAcquireMemoryLock
 .text.CoreAddMemoryDescriptor
                0x000000000000b2c3      0x2fb /tmp/ccF7NaNG.ltrans8.ltrans.o
                0x000000000000b2c3                CoreAddMemoryDescriptor
 .text.CoreFreePoolPagesI
                0x000000000000b5be       0x4b /tmp/ccF7NaNG.ltrans8.ltrans.o
 .text.CoreFreePoolI
                0x000000000000b609      0x495 /tmp/ccF7NaNG.ltrans8.ltrans.o
 .text.CoreInternalFreePool.part.3.lto_priv.56
                0x000000000000ba9e       0xd0 /tmp/ccF7NaNG.ltrans8.ltrans.o
                0x000000000000ba9e                CoreInternalFreePool.part.3.lto_priv.56
 .text.CoreFreePool
                0x000000000000bb6e      0x107 /tmp/ccF7NaNG.ltrans8.ltrans.o
                0x000000000000bb6e                CoreFreePool
 .text.CoreInternalAllocatePool.part.1.lto_priv.57
                0x000000000000bc75      0x107 /tmp/ccF7NaNG.ltrans8.ltrans.o
                0x000000000000bc75                CoreInternalAllocatePool.part.1.lto_priv.57
 .text.CoreAllocatePool
                0x000000000000bd7c      0x138 /tmp/ccF7NaNG.ltrans8.ltrans.o
                0x000000000000bd7c                CoreAllocatePool
 .text.CoreMergeGcdMapEntry
                0x000000000000beb4      0x118 /tmp/ccF7NaNG.ltrans9.ltrans.o
 .text.CoreProtocolsPerHandle
                0x000000000000bfcc      0x19c /tmp/ccF7NaNG.ltrans9.ltrans.o
                0x000000000000bfcc                CoreProtocolsPerHandle
 .text.CoreOpenProtocolInformation
                0x000000000000c168      0x1d5 /tmp/ccF7NaNG.ltrans9.ltrans.o
                0x000000000000c168                CoreOpenProtocolInformation
 .text.CoreSearchGcdMapEntry
                0x000000000000c33d      0x10b /tmp/ccF7NaNG.ltrans9.ltrans.o
                0x000000000000c33d                CoreSearchGcdMapEntry
 .text.CoreCleanupGcdMapEntry
                0x000000000000c448       0x70 /tmp/ccF7NaNG.ltrans9.ltrans.o
                0x000000000000c448                CoreCleanupGcdMapEntry
 .text.CoreInsertGcdMapEntry
                0x000000000000c4b8      0x139 /tmp/ccF7NaNG.ltrans9.ltrans.o
                0x000000000000c4b8                CoreInsertGcdMapEntry
 .text.CoreAllocateGcdMapEntry
                0x000000000000c5f1       0x6a /tmp/ccF7NaNG.ltrans9.ltrans.o
                0x000000000000c5f1                CoreAllocateGcdMapEntry
 .text.PageAlignLength
                0x000000000000c65b        0xa /tmp/ccF7NaNG.ltrans9.ltrans.o
                0x000000000000c65b                PageAlignLength
 .text.PageAlignAddress
                0x000000000000c665        0xe /tmp/ccF7NaNG.ltrans9.ltrans.o
                0x000000000000c665                PageAlignAddress
 .text.CoreReleaseGcdMemoryLock
                0x000000000000c673        0xc /tmp/ccF7NaNG.ltrans9.ltrans.o
                0x000000000000c673                CoreReleaseGcdMemoryLock
 .text.CoreAcquireGcdMemoryLock
                0x000000000000c67f        0xc /tmp/ccF7NaNG.ltrans9.ltrans.o
                0x000000000000c67f                CoreAcquireGcdMemoryLock
 .text.CoreDumpGcdIoSpaceMap
                0x000000000000c68b      0x136 /tmp/ccF7NaNG.ltrans9.ltrans.o
                0x000000000000c68b                CoreDumpGcdIoSpaceMap
 .text.CoreDumpGcdMemorySpaceMap
                0x000000000000c7c1      0x148 /tmp/ccF7NaNG.ltrans9.ltrans.o
                0x000000000000c7c1                CoreDumpGcdMemorySpaceMap
 .text.CoreConvertSpace
                0x000000000000c909      0x5a0 /tmp/ccF7NaNG.ltrans9.ltrans.o
                0x000000000000c909                CoreConvertSpace
 .text.CoreInstallProtocolInterfaceNotify.part.2.lto_priv.50
                0x000000000000cea9      0x28e /tmp/ccF7NaNG.ltrans9.ltrans.o
                0x000000000000cea9                CoreInstallProtocolInterfaceNotify.part.2.lto_priv.50
 .text.CopyMem  0x000000000000d137      0x260 /tmp/ccF7NaNG.ltrans10.ltrans.o
                0x000000000000d137                CopyMem
 .text.SetMem   0x000000000000d397       0x5f /tmp/ccF7NaNG.ltrans10.ltrans.o
                0x000000000000d397                SetMem
 .text.IoRead32
                0x000000000000d3f6       0x37 /tmp/ccF7NaNG.ltrans10.ltrans.o
                0x000000000000d3f6                IoRead32
 .text.ReportDebugCodeEnabled
                0x000000000000d42d        0xd /tmp/ccF7NaNG.ltrans10.ltrans.o
                0x000000000000d42d                ReportDebugCodeEnabled
 .text.ReportErrorCodeEnabled
                0x000000000000d43a        0xc /tmp/ccF7NaNG.ltrans10.ltrans.o
                0x000000000000d43a                ReportErrorCodeEnabled
 .text.ReportProgressCodeEnabled
                0x000000000000d446        0xa /tmp/ccF7NaNG.ltrans10.ltrans.o
                0x000000000000d446                ReportProgressCodeEnabled
 .text.ReportStatusCode
                0x000000000000d450       0x22 /tmp/ccF7NaNG.ltrans10.ltrans.o
                0x000000000000d450                ReportStatusCode
 .text.GetNextHob
                0x000000000000d472       0x53 /tmp/ccF7NaNG.ltrans10.ltrans.o
                0x000000000000d472                GetNextHob
 .text.GetHobList
                0x000000000000d4c5       0x3b /tmp/ccF7NaNG.ltrans10.ltrans.o
                0x000000000000d4c5                GetHobList
 .text.SetDevicePathEndNode
                0x000000000000d500       0x48 /tmp/ccF7NaNG.ltrans10.ltrans.o
                0x000000000000d500                SetDevicePathEndNode
 .text.DevicePathNodeLength
                0x000000000000d548       0x40 /tmp/ccF7NaNG.ltrans10.ltrans.o
                0x000000000000d548                DevicePathNodeLength
 .text.NextDevicePathNode
                0x000000000000d588       0x3f /tmp/ccF7NaNG.ltrans10.ltrans.o
                0x000000000000d588                NextDevicePathNode
 .text.DevicePathSubType
                0x000000000000d5c7       0x37 /tmp/ccF7NaNG.ltrans10.ltrans.o
                0x000000000000d5c7                DevicePathSubType
 .text.DevicePathType
                0x000000000000d5fe       0x36 /tmp/ccF7NaNG.ltrans10.ltrans.o
                0x000000000000d5fe                DevicePathType
 .text.IsDevicePathEndType
                0x000000000000d634       0x41 /tmp/ccF7NaNG.ltrans10.ltrans.o
                0x000000000000d634                IsDevicePathEndType
 .text.IsDevicePathEnd
                0x000000000000d675       0x53 /tmp/ccF7NaNG.ltrans10.ltrans.o
                0x000000000000d675                IsDevicePathEnd
 .text.IsDevicePathValid
                0x000000000000d6c8       0x9a /tmp/ccF7NaNG.ltrans10.ltrans.o
                0x000000000000d6c8                IsDevicePathValid
 .text.UefiDevicePathLibGetDevicePathSize
                0x000000000000d762       0x4e /tmp/ccF7NaNG.ltrans10.ltrans.o
                0x000000000000d762                UefiDevicePathLibGetDevicePathSize
 .text._ModuleEntryPoint
                0x000000000000d7b0       0x10 /tmp/ccF7NaNG.ltrans10.ltrans.o
                0x000000000000d7b0                _ModuleEntryPoint
 .text.FreePool
                0x000000000000d7c0       0x5b /tmp/ccF7NaNG.ltrans10.ltrans.o
                0x000000000000d7c0                FreePool
 .text.InternalAllocatePool
                0x000000000000d81b       0x38 /tmp/ccF7NaNG.ltrans10.ltrans.o
                0x000000000000d81b                InternalAllocatePool
 .text.InternalAllocateCopyPool
                0x000000000000d853       0x99 /tmp/ccF7NaNG.ltrans10.ltrans.o
                0x000000000000d853                InternalAllocateCopyPool
 .text.AllocateCopyPool
                0x000000000000d8ec       0x9e /tmp/ccF7NaNG.ltrans10.ltrans.o
                0x000000000000d8ec                AllocateCopyPool
 .text.UefiDevicePathLibDuplicateDevicePath
                0x000000000000d98a       0x2a /tmp/ccF7NaNG.ltrans10.ltrans.o
                0x000000000000d98a                UefiDevicePathLibDuplicateDevicePath
 .text.InternalAllocateZeroPool
                0x000000000000d9b4       0x23 /tmp/ccF7NaNG.ltrans10.ltrans.o
                0x000000000000d9b4                InternalAllocateZeroPool
 .text.ReallocatePool
                0x000000000000d9d7       0xee /tmp/ccF7NaNG.ltrans10.ltrans.o
                0x000000000000d9d7                ReallocatePool
 .text.AllocateZeroPool
                0x000000000000dac5       0x9e /tmp/ccF7NaNG.ltrans10.ltrans.o
                0x000000000000dac5                AllocateZeroPool
 .text.AllocatePool
                0x000000000000db63       0x9e /tmp/ccF7NaNG.ltrans10.ltrans.o
                0x000000000000db63                AllocatePool
 .text.UefiDevicePathLibAppendDevicePath
                0x000000000000dc01       0x9c /tmp/ccF7NaNG.ltrans10.ltrans.o
                0x000000000000dc01                UefiDevicePathLibAppendDevicePath
 .text.BasePrintLibFillBuffer
                0x000000000000dc9d       0x2e /tmp/ccF7NaNG.ltrans10.ltrans.o
                0x000000000000dc9d                BasePrintLibFillBuffer
 .text.CompareGuid
                0x000000000000dccb       0x4d /tmp/ccF7NaNG.ltrans10.ltrans.o
                0x000000000000dccb                CompareGuid
 .text.GetNextGuidHob
                0x000000000000dd18       0x3e /tmp/ccF7NaNG.ltrans10.ltrans.o
                0x000000000000dd18                GetNextGuidHob
 .text.CopyGuid
                0x000000000000dd56       0x3e /tmp/ccF7NaNG.ltrans10.ltrans.o
                0x000000000000dd56                CopyGuid
 .text.SetMem16.part.0.lto_priv.48
                0x000000000000dd94       0xb8 /tmp/ccF7NaNG.ltrans10.ltrans.o
                0x000000000000dd94                SetMem16.part.0.lto_priv.48
 .text.SetMem64.part.0.lto_priv.54
                0x000000000000de4c       0xb9 /tmp/ccF7NaNG.ltrans10.ltrans.o
                0x000000000000de4c                SetMem64.part.0.lto_priv.54
 .text.CoreGetDepexSectionAndPreProccess
                0x000000000000df05       0xb9 /tmp/ccF7NaNG.ltrans11.ltrans.o
                0x000000000000df05                CoreGetDepexSectionAndPreProccess
 .text.CoreReleaseDispatcherLock
                0x000000000000dfbe        0xc /tmp/ccF7NaNG.ltrans11.ltrans.o
                0x000000000000dfbe                CoreReleaseDispatcherLock
 .text.CoreAcquireDispatcherLock
                0x000000000000dfca        0xc /tmp/ccF7NaNG.ltrans11.ltrans.o
                0x000000000000dfca                CoreAcquireDispatcherLock
 .text.CoreDispatcher
                0x000000000000dfd6      0x876 /tmp/ccF7NaNG.ltrans11.ltrans.o
                0x000000000000dfd6                CoreDispatcher
 .text.CoreTrust
                0x000000000000e84c      0x145 /tmp/ccF7NaNG.ltrans11.ltrans.o
                0x000000000000e84c                CoreTrust
 .text.CoreSchedule
                0x000000000000e991      0x16f /tmp/ccF7NaNG.ltrans11.ltrans.o
                0x000000000000e991                CoreSchedule
 .text.CoreGetIoSpaceDescriptor
                0x000000000000eb00      0x1b4 /tmp/ccF7NaNG.ltrans12.ltrans.o
                0x000000000000eb00                CoreGetIoSpaceDescriptor
 .text.CoreRemoveIoSpace
                0x000000000000ecb4       0xe6 /tmp/ccF7NaNG.ltrans12.ltrans.o
                0x000000000000ecb4                CoreRemoveIoSpace
 .text.CoreFreeIoSpace
                0x000000000000ed9a       0xe6 /tmp/ccF7NaNG.ltrans12.ltrans.o
                0x000000000000ed9a                CoreFreeIoSpace
 .text.CoreAddIoSpace
                0x000000000000ee80      0x122 /tmp/ccF7NaNG.ltrans12.ltrans.o
                0x000000000000ee80                CoreAddIoSpace
 .text.CoreSetMemorySpaceAttributes
                0x000000000000efa2       0xf9 /tmp/ccF7NaNG.ltrans12.ltrans.o
                0x000000000000efa2                CoreSetMemorySpaceAttributes
 .text.CoreRemoveMemorySpace
                0x000000000000f09b       0xe6 /tmp/ccF7NaNG.ltrans12.ltrans.o
                0x000000000000f09b                CoreRemoveMemorySpace
 .text.CoreAllocateIoSpace
                0x000000000000f181      0x1de /tmp/ccF7NaNG.ltrans12.ltrans.o
                0x000000000000f181                CoreAllocateIoSpace
 .text.CoreSetMemorySpaceCapabilities
                0x000000000000f35f      0x14e /tmp/ccF7NaNG.ltrans12.ltrans.o
                0x000000000000f35f                CoreSetMemorySpaceCapabilities
 .text.GetPoolIndexFromSize.lto_priv.60
                0x000000000000f4ad       0x20 /tmp/ccF7NaNG.ltrans12.ltrans.o
                0x000000000000f4ad                GetPoolIndexFromSize.lto_priv.60
 .text.CoreGetIoSpaceMap.part.7.lto_priv.63
                0x000000000000f4cd      0x17c /tmp/ccF7NaNG.ltrans12.ltrans.o
                0x000000000000f4cd                CoreGetIoSpaceMap.part.7.lto_priv.63
 .text.CoreGetIoSpaceMap
                0x000000000000f649       0x1a /tmp/ccF7NaNG.ltrans12.ltrans.o
                0x000000000000f649                CoreGetIoSpaceMap
 .text.CoreGetMemorySpaceMap.part.4.lto_priv.64
                0x000000000000f663      0x182 /tmp/ccF7NaNG.ltrans12.ltrans.o
                0x000000000000f663                CoreGetMemorySpaceMap.part.4.lto_priv.64
 .text.CoreGetMemorySpaceMap
                0x000000000000f7e5       0x1a /tmp/ccF7NaNG.ltrans12.ltrans.o
                0x000000000000f7e5                CoreGetMemorySpaceMap
 .text.CoreGetMemorySpaceDescriptor.part.3.lto_priv.68
                0x000000000000f7ff      0x199 /tmp/ccF7NaNG.ltrans12.ltrans.o
                0x000000000000f7ff                CoreGetMemorySpaceDescriptor.part.3.lto_priv.68
 .text.CoreGetMemorySpaceDescriptor
                0x000000000000f998       0x15 /tmp/ccF7NaNG.ltrans12.ltrans.o
                0x000000000000f998                CoreGetMemorySpaceDescriptor
 .text.CoreConvertResourceDescriptorHobAttributesToCapabilities
                0x000000000000f9ad       0x31 /tmp/ccF7NaNG.ltrans12.ltrans.o
                0x000000000000f9ad                CoreConvertResourceDescriptorHobAttributesToCapabilities
 .text.CoreInitializeGcdServices
                0x000000000000f9de      0x73b /tmp/ccF7NaNG.ltrans12.ltrans.o
                0x000000000000f9de                CoreInitializeGcdServices
 .text.CoreLocateHandle
                0x0000000000010119       0x2a /tmp/ccF7NaNG.ltrans13.ltrans.o
                0x0000000000010119                CoreLocateHandle
 .text.CoreRegisterProtocolNotify
                0x0000000000010143      0x14c /tmp/ccF7NaNG.ltrans13.ltrans.o
                0x0000000000010143                CoreRegisterProtocolNotify
 .text.CoreDisconnectController
                0x000000000001028f      0x61e /tmp/ccF7NaNG.ltrans13.ltrans.o
                0x000000000001028f                CoreDisconnectController
 .text.AddSortedDriverBindingProtocol
                0x00000000000108ad      0x11f /tmp/ccF7NaNG.ltrans13.ltrans.o
 .text.CoreConnectController
                0x00000000000109cc      0x7ed /tmp/ccF7NaNG.ltrans13.ltrans.o
                0x00000000000109cc                CoreConnectController
 .text.CoreRemoveInterfaceFromProtocol
                0x00000000000111b9       0xe0 /tmp/ccF7NaNG.ltrans13.ltrans.o
                0x00000000000111b9                CoreRemoveInterfaceFromProtocol
 .text.CoreNotifyProtocolEntry
                0x0000000000011299       0xa4 /tmp/ccF7NaNG.ltrans13.ltrans.o
                0x0000000000011299                CoreNotifyProtocolEntry
 .text.CoreReinstallProtocolInterface
                0x000000000001133d      0x185 /tmp/ccF7NaNG.ltrans13.ltrans.o
                0x000000000001133d                CoreReinstallProtocolInterface
 .text.CoreReleaseLock
                0x00000000000114c2       0x7a /tmp/ccF7NaNG.ltrans13.ltrans.o
                0x00000000000114c2                CoreReleaseLock
 .text.CoreAcquireLock
                0x000000000001153c       0x7d /tmp/ccF7NaNG.ltrans13.ltrans.o
                0x000000000001153c                CoreAcquireLock
 .text.CoreGetMemoryMap
                0x00000000000115b9      0x89d /tmp/ccF7NaNG.ltrans14.ltrans.o
                0x00000000000115b9                CoreGetMemoryMap
 .text.CoreAllocatePages
                0x0000000000011e56      0x1a2 /tmp/ccF7NaNG.ltrans14.ltrans.o
                0x0000000000011e56                CoreAllocatePages
 .text.CoreConvertPagesEx
                0x0000000000011ff8      0x627 /tmp/ccF7NaNG.ltrans14.ltrans.o
                0x0000000000011ff8                CoreConvertPagesEx
 .text.CoreConvertPages
                0x000000000001261f       0x12 /tmp/ccF7NaNG.ltrans14.ltrans.o
                0x000000000001261f                CoreConvertPages
 .text.CoreFreePages
                0x0000000000012631      0x1fa /tmp/ccF7NaNG.ltrans14.ltrans.o
                0x0000000000012631                CoreFreePages
 .text.CoreGetNextLocateByRegisterNotify
                0x000000000001282b       0xc9 /tmp/ccF7NaNG.ltrans15.ltrans.o
 .text.CoreGetNextLocateByProtocol
                0x00000000000128f4       0x90 /tmp/ccF7NaNG.ltrans15.ltrans.o
 .text.CoreGetNextLocateAllHandles
                0x0000000000012984       0x73 /tmp/ccF7NaNG.ltrans15.ltrans.o
 .text.CoreInstallProtocolInterface
                0x00000000000129f7       0xc5 /tmp/ccF7NaNG.ltrans15.ltrans.o
                0x00000000000129f7                CoreInstallProtocolInterface
 .text.CoreFindProtocolEntry
                0x0000000000012abc      0x128 /tmp/ccF7NaNG.ltrans15.ltrans.o
                0x0000000000012abc                CoreFindProtocolEntry
 .text.CoreFindProtocolInterface
                0x0000000000012be4       0xc3 /tmp/ccF7NaNG.ltrans15.ltrans.o
                0x0000000000012be4                CoreFindProtocolInterface
 .text.CoreValidateHandle
                0x0000000000012ca7       0x8c /tmp/ccF7NaNG.ltrans15.ltrans.o
                0x0000000000012ca7                CoreValidateHandle
 .text.CoreGetProtocolInterface
                0x0000000000012d33       0x99 /tmp/ccF7NaNG.ltrans15.ltrans.o
                0x0000000000012d33                CoreGetProtocolInterface
 .text.CoreReleaseProtocolLock
                0x0000000000012dcc        0xc /tmp/ccF7NaNG.ltrans15.ltrans.o
                0x0000000000012dcc                CoreReleaseProtocolLock
 .text.CoreAcquireProtocolLock
                0x0000000000012dd8        0xc /tmp/ccF7NaNG.ltrans15.ltrans.o
                0x0000000000012dd8                CoreAcquireProtocolLock
 .text.CoreCloseProtocol
                0x0000000000012de4      0x1a7 /tmp/ccF7NaNG.ltrans15.ltrans.o
                0x0000000000012de4                CoreCloseProtocol
 .text.CoreOpenProtocol
                0x0000000000012f8b      0x3c0 /tmp/ccF7NaNG.ltrans15.ltrans.o
                0x0000000000012f8b                CoreOpenProtocol
 .text.CoreHandleProtocol
                0x000000000001334b       0x26 /tmp/ccF7NaNG.ltrans15.ltrans.o
                0x000000000001334b                CoreHandleProtocol
 .text.CoreDisconnectControllersUsingProtocolInterface
                0x0000000000013371      0x16d /tmp/ccF7NaNG.ltrans15.ltrans.o
                0x0000000000013371                CoreDisconnectControllersUsingProtocolInterface
 .text.CoreUninstallProtocolInterface
                0x00000000000134de      0x192 /tmp/ccF7NaNG.ltrans15.ltrans.o
                0x00000000000134de                CoreUninstallProtocolInterface
 .text.CoreUninstallMultipleProtocolInterfaces
                0x0000000000013670       0xa0 /tmp/ccF7NaNG.ltrans15.ltrans.o
                0x0000000000013670                CoreUninstallMultipleProtocolInterfaces
 .text.CoreLocateHandleBuffer.part.3.lto_priv.65
                0x0000000000013710       0xe1 /tmp/ccF7NaNG.ltrans15.ltrans.o
                0x0000000000013710                CoreLocateHandleBuffer.part.3.lto_priv.65
 .text.CoreLocateDevicePath.part.4.lto_priv.73
                0x00000000000137f1      0x206 /tmp/ccF7NaNG.ltrans15.ltrans.o
                0x00000000000137f1                CoreLocateDevicePath.part.4.lto_priv.73
 .text.CoreLocateDevicePath
                0x00000000000139f7       0x1a /tmp/ccF7NaNG.ltrans15.ltrans.o
                0x00000000000139f7                CoreLocateDevicePath
 .text.CoreInstallMultipleProtocolInterfaces
                0x0000000000013a11      0x160 /tmp/ccF7NaNG.ltrans15.ltrans.o
                0x0000000000013a11                CoreInstallMultipleProtocolInterfaces
 .text.CoreLocateHandleBuffer
                0x0000000000013b71       0x1f /tmp/ccF7NaNG.ltrans15.ltrans.o
                0x0000000000013b71                CoreLocateHandleBuffer
 .text.CoreLocateProtocol.part.2.lto_priv.52
                0x0000000000013b90      0x158 /tmp/ccF7NaNG.ltrans15.ltrans.o
                0x0000000000013b90                CoreLocateProtocol.part.2.lto_priv.52
 .text.CoreLocateProtocol
                0x0000000000013ce8       0x1a /tmp/ccF7NaNG.ltrans15.ltrans.o
                0x0000000000013ce8                CoreLocateProtocol
 .text.CoreLocateHandle.part.1.lto_priv.51
                0x0000000000013d02      0x24c /tmp/ccF7NaNG.ltrans15.ltrans.o
                0x0000000000013d02                CoreLocateHandle.part.1.lto_priv.51
 .text.ProfileProtocolSetRecordingState
                0x0000000000013f4e       0x1d /tmp/ccF7NaNG.ltrans16.ltrans.o
                0x0000000000013f4e                ProfileProtocolSetRecordingState
 .text.ProfileProtocolGetRecordingState
                0x0000000000013f6b       0x2e /tmp/ccF7NaNG.ltrans16.ltrans.o
                0x0000000000013f6b                ProfileProtocolGetRecordingState
 .text.ProfileProtocolUnregisterImage
                0x0000000000013f99      0x164 /tmp/ccF7NaNG.ltrans16.ltrans.o
                0x0000000000013f99                ProfileProtocolUnregisterImage
 .text.ProfileProtocolRegisterImage
                0x00000000000140fd      0x187 /tmp/ccF7NaNG.ltrans16.ltrans.o
                0x00000000000140fd                ProfileProtocolRegisterImage
 .text.ProfileProtocolGetData
                0x0000000000014284      0x275 /tmp/ccF7NaNG.ltrans16.ltrans.o
                0x0000000000014284                ProfileProtocolGetData
 .text.CoreUpdateProfileFree
                0x00000000000144f9      0x2e2 /tmp/ccF7NaNG.ltrans16.ltrans.o
 .text.IsMemoryTypeToGuard
                0x00000000000147db       0xce /tmp/ccF7NaNG.ltrans16.ltrans.o
                0x00000000000147db                IsMemoryTypeToGuard
 .text.UnsetGuardPage
                0x00000000000148a9       0x3f /tmp/ccF7NaNG.ltrans16.ltrans.o
                0x00000000000148a9                UnsetGuardPage
 .text.SetGuardPage
                0x00000000000148e8       0x33 /tmp/ccF7NaNG.ltrans16.ltrans.o
                0x00000000000148e8                SetGuardPage
 .text.FindGuardedMemoryMap
                0x000000000001491b      0x31d /tmp/ccF7NaNG.ltrans16.ltrans.o
                0x000000000001491b                FindGuardedMemoryMap
 .text.IsMemoryGuarded
                0x0000000000014c38       0xee /tmp/ccF7NaNG.ltrans16.ltrans.o
                0x0000000000014c38                IsMemoryGuarded
 .text.GetGuardedMemoryBits
                0x0000000000014d26      0x1ae /tmp/ccF7NaNG.ltrans16.ltrans.o
                0x0000000000014d26                GetGuardedMemoryBits
 .text.IsGuardPage
                0x0000000000014ed4       0xb5 /tmp/ccF7NaNG.ltrans16.ltrans.o
                0x0000000000014ed4                IsGuardPage
 .text.SetGuardForMemory
                0x0000000000014f89      0x1b9 /tmp/ccF7NaNG.ltrans16.ltrans.o
                0x0000000000014f89                SetGuardForMemory
 .text.CoreUpdateProfile
                0x0000000000015142      0x1f2 /tmp/ccF7NaNG.ltrans16.ltrans.o
                0x0000000000015142                CoreUpdateProfile
 .text.ProfileProtocolRecord
                0x0000000000015334       0x1d /tmp/ccF7NaNG.ltrans16.ltrans.o
                0x0000000000015334                ProfileProtocolRecord
 .text.GenericProtocolNotify
                0x0000000000015351      0x246 /tmp/ccF7NaNG.ltrans17.ltrans.o
 .text.CoreNotifyOnProtocolEntryTable
                0x0000000000015597      0x127 /tmp/ccF7NaNG.ltrans17.ltrans.o
                0x0000000000015597                CoreNotifyOnProtocolEntryTable
 .text.CoreProcessFvImageFile
                0x00000000000156be      0x634 /tmp/ccF7NaNG.ltrans17.ltrans.o
                0x00000000000156be                CoreProcessFvImageFile
 .text.CoreFwVolEventProtocolNotify
                0x0000000000015cf2      0x850 /tmp/ccF7NaNG.ltrans17.ltrans.o
                0x0000000000015cf2                CoreFwVolEventProtocolNotify
 .text.VerifyGuidedSectionGuid
                0x0000000000016542       0xdc /tmp/ccF7NaNG.ltrans18.ltrans.o
 .text.DumpModuleImageInfo
                0x000000000001661e      0x12f /tmp/ccF7NaNG.ltrans18.ltrans.o
 .text.OpenSectionStreamEx
                0x000000000001674d      0x105 /tmp/ccF7NaNG.ltrans18.ltrans.o
                0x000000000001674d                OpenSectionStreamEx
 .text.CreateChildNode
                0x0000000000016852      0x50e /tmp/ccF7NaNG.ltrans18.ltrans.o
                0x0000000000016852                CreateChildNode
 .text.NotifyGuidedExtraction
                0x0000000000016d60      0x21d /tmp/ccF7NaNG.ltrans18.ltrans.o
 .text.CommonExceptionHandler
                0x0000000000016f7d      0x586 /tmp/ccF7NaNG.ltrans18.ltrans.o
                0x0000000000016f7d                CommonExceptionHandler
 .text.CoreReadImageFile
                0x0000000000017503       0xc1 /tmp/ccF7NaNG.ltrans19.ltrans.o
                0x0000000000017503                CoreReadImageFile
 .text.CoreUnloadAndCloseImage
                0x00000000000175c4      0x603 /tmp/ccF7NaNG.ltrans19.ltrans.o
                0x00000000000175c4                CoreUnloadAndCloseImage
 .text.CoreLoadedImageInfo
                0x0000000000017bc7       0xac /tmp/ccF7NaNG.ltrans19.ltrans.o
                0x0000000000017bc7                CoreLoadedImageInfo
 .text.GetMachineTypeName
                0x0000000000017c73       0x59 /tmp/ccF7NaNG.ltrans19.ltrans.o
                0x0000000000017c73                GetMachineTypeName
 .text.FindStreamNode.part.3.lto_priv.53
                0x0000000000017ccc      0x12e /tmp/ccF7NaNG.ltrans19.ltrans.o
                0x0000000000017ccc                FindStreamNode.part.3.lto_priv.53
 .text.CloseSectionStream
                0x0000000000017dfa      0x1dd /tmp/ccF7NaNG.ltrans19.ltrans.o
                0x0000000000017dfa                CloseSectionStream
 .text.CoreFreeMemorySpace
                0x0000000000017fd7       0xe6 /tmp/ccF7NaNG.ltrans20.ltrans.o
                0x0000000000017fd7                CoreFreeMemorySpace
 .text.CoreInternalAddMemorySpace
                0x00000000000180bd       0xb3 /tmp/ccF7NaNG.ltrans20.ltrans.o
                0x00000000000180bd                CoreInternalAddMemorySpace
 .text.CoreAllocateSpace
                0x0000000000018170      0x699 /tmp/ccF7NaNG.ltrans20.ltrans.o
                0x0000000000018170                CoreAllocateSpace
 .text.CoreAllocateMemorySpace
                0x0000000000018809      0x1de /tmp/ccF7NaNG.ltrans20.ltrans.o
                0x0000000000018809                CoreAllocateMemorySpace
 .text.CoreAddMemorySpace
                0x00000000000189e7      0x1e5 /tmp/ccF7NaNG.ltrans20.ltrans.o
                0x00000000000189e7                CoreAddMemorySpace
 .text.CoreSetInterruptState
                0x0000000000018bcc       0x65 /tmp/ccF7NaNG.ltrans21.ltrans.o
 .text.CoreRaiseTpl
                0x0000000000018c31      0x137 /tmp/ccF7NaNG.ltrans21.ltrans.o
                0x0000000000018c31                CoreRaiseTpl
 .text.CoreRestoreTpl
                0x0000000000018d68      0x32f /tmp/ccF7NaNG.ltrans21.ltrans.o
                0x0000000000018d68                CoreRestoreTpl
 .text.NotifyFwVolBlock
                0x0000000000019097      0x868 /tmp/ccF7NaNG.ltrans21.ltrans.o
                0x0000000000019097                NotifyFwVolBlock
 .text.CoreSetWatchdogTimer
                0x00000000000198ff       0x44 /tmp/ccF7NaNG.ltrans22.ltrans.o
                0x00000000000198ff                CoreSetWatchdogTimer
 .text.CoreInternalWaitForTick
                0x0000000000019943       0x58 /tmp/ccF7NaNG.ltrans22.ltrans.o
 .text.CoreInstallConfigurationTable
                0x000000000001999b      0x1f9 /tmp/ccF7NaNG.ltrans22.ltrans.o
                0x000000000001999b                CoreInstallConfigurationTable
 .text.CoreStall
                0x0000000000019b94      0x122 /tmp/ccF7NaNG.ltrans22.ltrans.o
                0x0000000000019b94                CoreStall
 .text.CoreUnloadImage
                0x0000000000019cb6      0x104 /tmp/ccF7NaNG.ltrans22.ltrans.o
                0x0000000000019cb6                CoreUnloadImage
 .text.CoreUnloadImageEx
                0x0000000000019dba        0x8 /tmp/ccF7NaNG.ltrans22.ltrans.o
                0x0000000000019dba                CoreUnloadImageEx
 .text.CoreLoadImageEx
                0x0000000000019dc2      0x109 /tmp/ccF7NaNG.ltrans22.ltrans.o
                0x0000000000019dc2                CoreLoadImageEx
 .text.CoreLoadImage
                0x0000000000019ecb       0xfc /tmp/ccF7NaNG.ltrans22.ltrans.o
                0x0000000000019ecb                CoreLoadImage
 .text.GetImageRecordByAddress.lto_priv.72
                0x0000000000019fc7       0x85 /tmp/ccF7NaNG.ltrans22.ltrans.o
                0x0000000000019fc7                GetImageRecordByAddress.lto_priv.72
 .text.MergeMemoryMap
                0x000000000001a04c       0xc3 /tmp/ccF7NaNG.ltrans22.ltrans.o
                0x000000000001a04c                MergeMemoryMap
 .text.EfiSizeToPages.lto_priv.71
                0x000000000001a10f       0x29 /tmp/ccF7NaNG.ltrans22.ltrans.o
                0x000000000001a10f                EfiSizeToPages.lto_priv.71
 .text.CoreExit
                0x000000000001a138      0x1cb /tmp/ccF7NaNG.ltrans22.ltrans.o
                0x000000000001a138                CoreExit
 .text.CoreStartImage
                0x000000000001a303      0x493 /tmp/ccF7NaNG.ltrans22.ltrans.o
                0x000000000001a303                CoreStartImage
 .text.CoreEfiNotAvailableYetArg5
                0x000000000001a796        0xb /tmp/ccF7NaNG.ltrans23.ltrans.o
                0x000000000001a796                CoreEfiNotAvailableYetArg5
 .text.CoreEfiNotAvailableYetArg4
                0x000000000001a7a1        0xb /tmp/ccF7NaNG.ltrans23.ltrans.o
                0x000000000001a7a1                CoreEfiNotAvailableYetArg4
 .text.CoreEfiNotAvailableYetArg3
                0x000000000001a7ac        0xb /tmp/ccF7NaNG.ltrans23.ltrans.o
                0x000000000001a7ac                CoreEfiNotAvailableYetArg3
 .text.CoreEfiNotAvailableYetArg2
                0x000000000001a7b7        0xb /tmp/ccF7NaNG.ltrans23.ltrans.o
                0x000000000001a7b7                CoreEfiNotAvailableYetArg2
 .text.CoreEfiNotAvailableYetArg1
                0x000000000001a7c2        0xb /tmp/ccF7NaNG.ltrans23.ltrans.o
                0x000000000001a7c2                CoreEfiNotAvailableYetArg1
 .text.DxeMainUefiDecompressGetInfo
                0x000000000001a7cd       0x35 /tmp/ccF7NaNG.ltrans23.ltrans.o
                0x000000000001a7cd                DxeMainUefiDecompressGetInfo
 .text.DxeMainUefiDecompress
                0x000000000001a802      0x4ed /tmp/ccF7NaNG.ltrans23.ltrans.o
                0x000000000001a802                DxeMainUefiDecompress
 .text.ReportStatusCodeWithExtendedData.constprop.22
                0x000000000001acef       0x61 /tmp/ccF7NaNG.ltrans23.ltrans.o
                0x000000000001acef                ReportStatusCodeWithExtendedData.constprop.22
 .text.FindChildNode.constprop.1
                0x000000000001ad50      0x367 /tmp/ccF7NaNG.ltrans23.ltrans.o
                0x000000000001ad50                FindChildNode.constprop.1
 .text.CalculateEfiHdrCrc
                0x000000000001b0b7       0x3c /tmp/ccF7NaNG.ltrans23.ltrans.o
                0x000000000001b0b7                CalculateEfiHdrCrc
 .text.CoreExitBootServices
                0x000000000001b0f3      0x2cc /tmp/ccF7NaNG.ltrans23.ltrans.o
                0x000000000001b0f3                CoreExitBootServices
 .text.InstallMemoryAttributesTableOnReadyToBoot
                0x000000000001b3bf       0x9d /tmp/ccF7NaNG.ltrans24.ltrans.o
                0x000000000001b3bf                InstallMemoryAttributesTableOnReadyToBoot
 .text.SetUefiImageMemoryAttributes
                0x000000000001b45c      0x127 /tmp/ccF7NaNG.ltrans24.ltrans.o
                0x000000000001b45c                SetUefiImageMemoryAttributes
 .text.ProtectUefiImage
                0x000000000001b583      0x6b9 /tmp/ccF7NaNG.ltrans24.ltrans.o
                0x000000000001b583                ProtectUefiImage
 .text.InstallMemoryAttributesTableOnMemoryAllocation
                0x000000000001bc3c       0x17 /tmp/ccF7NaNG.ltrans24.ltrans.o
                0x000000000001bc3c                InstallMemoryAttributesTableOnMemoryAllocation
 .text.GetFileNameFromFilePath
                0x000000000001bc53       0x50 /tmp/ccF7NaNG.ltrans25.ltrans.o
 .text.GetMemoryProfileAllocInfoFromAddress
                0x000000000001bca3       0xe0 /tmp/ccF7NaNG.ltrans25.ltrans.o
                0x000000000001bca3                GetMemoryProfileAllocInfoFromAddress
 .text.GetMemoryProfileDriverInfoFromAddress
                0x000000000001bd83       0x7e /tmp/ccF7NaNG.ltrans25.ltrans.o
                0x000000000001bd83                GetMemoryProfileDriverInfoFromAddress
 .text.CoreUpdateProfileAllocate
                0x000000000001be01      0x26f /tmp/ccF7NaNG.ltrans25.ltrans.o
                0x000000000001be01                CoreUpdateProfileAllocate
 .text.NeedRecordThisDriver
                0x000000000001c070       0xe0 /tmp/ccF7NaNG.ltrans25.ltrans.o
                0x000000000001c070                NeedRecordThisDriver
 .text.InternalPeCoffGetEntryPoint
                0x000000000001c150       0xad /tmp/ccF7NaNG.ltrans25.ltrans.o
                0x000000000001c150                InternalPeCoffGetEntryPoint
 .text.UnregisterMemoryProfileImage
                0x000000000001c1fd      0x206 /tmp/ccF7NaNG.ltrans25.ltrans.o
                0x000000000001c1fd                UnregisterMemoryProfileImage
 .text.BuildDriverInfo
                0x000000000001c403      0x2ed /tmp/ccF7NaNG.ltrans25.ltrans.o
                0x000000000001c403                BuildDriverInfo
 .text.RegisterMemoryProfileImage
                0x000000000001c6f0       0xc4 /tmp/ccF7NaNG.ltrans25.ltrans.o
                0x000000000001c6f0                RegisterMemoryProfileImage
 .text.PeCoffLoaderGetPeHeaderMagicValue
                0x000000000001c7b4       0x19 /tmp/ccF7NaNG.ltrans25.ltrans.o
                0x000000000001c7b4                PeCoffLoaderGetPeHeaderMagicValue
 .text.InternalPeCoffGetSubsystem
                0x000000000001c7cd       0x7d /tmp/ccF7NaNG.ltrans25.ltrans.o
                0x000000000001c7cd                InternalPeCoffGetSubsystem
 .text.CoreInternalAllocatePages.part.3.lto_priv.55
                0x000000000001c84a      0x186 /tmp/ccF7NaNG.ltrans25.ltrans.o
                0x000000000001c84a                CoreInternalAllocatePages.part.3.lto_priv.55
 .text.CoreNotifyEvent
                0x000000000001c9d0       0x9b /tmp/ccF7NaNG.ltrans26.ltrans.o
 .text.CoreInsertEventTimer
                0x000000000001ca6b       0xce /tmp/ccF7NaNG.ltrans26.ltrans.o
 .text.PopBool  0x000000000001cb39       0x2d /tmp/ccF7NaNG.ltrans26.ltrans.o
                0x000000000001cb39                PopBool
 .text.PushBool
                0x000000000001cb66       0xca /tmp/ccF7NaNG.ltrans26.ltrans.o
                0x000000000001cb66                PushBool
 .text.CoreReleaseEventLock
                0x000000000001cc30        0xc /tmp/ccF7NaNG.ltrans26.ltrans.o
                0x000000000001cc30                CoreReleaseEventLock
 .text.CoreAcquireEventLock
                0x000000000001cc3c        0xc /tmp/ccF7NaNG.ltrans26.ltrans.o
                0x000000000001cc3c                CoreAcquireEventLock
 .text.CoreCheckEvent
                0x000000000001cc48      0x110 /tmp/ccF7NaNG.ltrans26.ltrans.o
                0x000000000001cc48                CoreCheckEvent
 .text.CoreCreateEventInternal
                0x000000000001cd58      0x25f /tmp/ccF7NaNG.ltrans26.ltrans.o
                0x000000000001cd58                CoreCreateEventInternal
 .text.CoreCreateEventEx
                0x000000000001cfb7       0x3c /tmp/ccF7NaNG.ltrans26.ltrans.o
                0x000000000001cfb7                CoreCreateEventEx
 .text.CoreCreateEvent
                0x000000000001cff3       0x21 /tmp/ccF7NaNG.ltrans26.ltrans.o
                0x000000000001cff3                CoreCreateEvent
 .text.CoreNotifySignalList
                0x000000000001d014       0x97 /tmp/ccF7NaNG.ltrans26.ltrans.o
                0x000000000001d014                CoreNotifySignalList
 .text.CoreSignalEvent
                0x000000000001d0ab       0xf8 /tmp/ccF7NaNG.ltrans26.ltrans.o
                0x000000000001d0ab                CoreSignalEvent
 .text.CoreWaitForEvent
                0x000000000001d1a3       0x8b /tmp/ccF7NaNG.ltrans26.ltrans.o
                0x000000000001d1a3                CoreWaitForEvent
 .text.CoreSetTimer
                0x000000000001d22e      0x1c8 /tmp/ccF7NaNG.ltrans26.ltrans.o
                0x000000000001d22e                CoreSetTimer
 .text.CoreCloseEvent
                0x000000000001d3f6      0x254 /tmp/ccF7NaNG.ltrans26.ltrans.o
                0x000000000001d3f6                CoreCloseEvent
 .text.CoreTimerTick
                0x000000000001d64a      0x133 /tmp/ccF7NaNG.ltrans26.ltrans.o
                0x000000000001d64a                CoreTimerTick
 .text.CoreCheckTimers
                0x000000000001d77d      0x197 /tmp/ccF7NaNG.ltrans26.ltrans.o
                0x000000000001d77d                CoreCheckTimers
 .text.DisableNullDetectionAtTheEndOfDxe
                0x000000000001d914      0x18d /tmp/ccF7NaNG.ltrans27.ltrans.o
                0x000000000001d914                DisableNullDetectionAtTheEndOfDxe
 .text.CoreAcquireLockOrFail
                0x000000000001daa1       0x8f /tmp/ccF7NaNG.ltrans27.ltrans.o
                0x000000000001daa1                CoreAcquireLockOrFail
 .text.SortMemoryMap.lto_priv.66.lto_priv.70
                0x000000000001db30       0xa7 /tmp/ccF7NaNG.ltrans27.ltrans.o
                0x000000000001db30                SortMemoryMap.lto_priv.66.lto_priv.70
 .text.GetPermissionAttributeForMemoryType.lto_priv.49
                0x000000000001dbd7       0x47 /tmp/ccF7NaNG.ltrans27.ltrans.o
                0x000000000001dbd7                GetPermissionAttributeForMemoryType.lto_priv.49
 .text.ApplyMemoryProtectionPolicy
                0x000000000001dc1e      0x132 /tmp/ccF7NaNG.ltrans27.ltrans.o
                0x000000000001dc1e                ApplyMemoryProtectionPolicy
 .text.MemoryProtectionCpuArchProtocolNotify
                0x000000000001dd50      0x58f /tmp/ccF7NaNG.ltrans27.ltrans.o
                0x000000000001dd50                MemoryProtectionCpuArchProtocolNotify
 .text.CoreFvToDevicePath
                0x000000000001e2df       0x64 /tmp/ccF7NaNG.ltrans28.ltrans.o
                0x000000000001e2df                CoreFvToDevicePath
 .text.CoreAddToDriverList
                0x000000000001e343       0xce /tmp/ccF7NaNG.ltrans28.ltrans.o
                0x000000000001e343                CoreAddToDriverList
 .text.CoreInsertOnScheduledQueueWhileProcessingBeforeAndAfter
                0x000000000001e411      0x2a1 /tmp/ccF7NaNG.ltrans28.ltrans.o
                0x000000000001e411                CoreInsertOnScheduledQueueWhileProcessingBeforeAndAfter
 .text.InternalReportStatusCodeEx.constprop.46
                0x000000000001e6b2      0x142 /tmp/ccF7NaNG.ltrans29.ltrans.o
                0x000000000001e6b2                InternalReportStatusCodeEx.constprop.46
 *fill*         0x000000000001e7f4        0xc 
 .text          0x000000000001e800       0x8f /mnt/c/SerranonOS/UEFI/vUDK2017/Build/DuetPkgX64/DEBUG_GCC5/X64/MdePkg/Library/BaseLib/BaseLib/OUTPUT/BaseLib.lib(SetJump.obj)
                0x000000000001e800                SetJump
 *fill*         0x000000000001e88f        0x1 
 .text          0x000000000001e890       0x7c /mnt/c/SerranonOS/UEFI/vUDK2017/Build/DuetPkgX64/DEBUG_GCC5/X64/MdePkg/Library/BaseLib/BaseLib/OUTPUT/BaseLib.lib(LongJump.obj)
                0x000000000001e890                InternalLongJump
 *fill*         0x000000000001e90c        0x4 
 .text          0x000000000001e910       0x27 /mnt/c/SerranonOS/UEFI/vUDK2017/Build/DuetPkgX64/DEBUG_GCC5/X64/MdePkg/Library/BaseLib/BaseLib/OUTPUT/BaseLib.lib(CpuId.obj)
                0x000000000001e910                AsmCpuid
 *fill*         0x000000000001e937        0x9 
 .text          0x000000000001e940       0x2f /mnt/c/SerranonOS/UEFI/vUDK2017/Build/DuetPkgX64/DEBUG_GCC5/X64/MdePkg/Library/BaseLib/BaseLib/OUTPUT/BaseLib.lib(CpuIdEx.obj)
                0x000000000001e940                AsmCpuidEx
 *fill*         0x000000000001e96f        0x1 
 .text          0x000000000001e970      0x3f8 /mnt/c/SerranonOS/UEFI/vUDK2017/Build/DuetPkgX64/DEBUG_GCC5/X64/UefiCpuPkg/Library/CpuExceptionHandlerLib/DxeCpuExceptionHandlerLib/OUTPUT/DxeCpuExceptionHandlerLib.lib(ExceptionHandlerAsm.obj)
                0x000000000001eb81                CommonInterruptEntry
                0x000000000001ed3d                AsmGetTemplateAddressMap
                0x000000000001ed61                AsmVectorNumFixup
 *(.rodata .rodata.* .gnu.linkonce.r.*)
 .rodata.str1.1
                0x000000000001ed68      0xb22 /tmp/ccF7NaNG.ltrans0.ltrans.o
                                        0xb2f (size before relaxing)
 *fill*         0x000000000001f88a        0x6 
 .rodata.mDoFarReturnFlag
                0x000000000001f890        0x8 /tmp/ccF7NaNG.ltrans0.ltrans.o
                0x000000000001f890                _gPcd_FixedAtBuild_PcdMemoryProfileMemoryType
                0x000000000001f890                _gPcd_FixedAtBuild_PcdDxeNxMemoryProtectionPolicy
                0x000000000001f890                _gPcd_FixedAtBuild_PcdHeapGuardPoolType
                0x000000000001f890                _gPcd_FixedAtBuild_PcdLoadModuleAtFixAddressEnable
                0x000000000001f890                _gPcd_FixedAtBuild_PcdHeapGuardPageType
                0x000000000001f890                mDoFarReturnFlag
 .rodata._gPcd_FixedAtBuild_PcdMemoryProfileDriverPath
                0x000000000001f898        0x1 /tmp/ccF7NaNG.ltrans0.ltrans.o
 .rodata.str1.1
                0x000000000001f899      0x5cd /tmp/ccF7NaNG.ltrans1.ltrans.o
                                        0x675 (size before relaxing)
 *fill*         0x000000000001fe66        0x2 
 .rodata.CoreLoadImageCommon
                0x000000000001fe68       0x2c /tmp/ccF7NaNG.ltrans1.ltrans.o
 .rodata.str1.1
                0x000000000001fe94      0x7ed /tmp/ccF7NaNG.ltrans2.ltrans.o
                                        0x885 (size before relaxing)
 .rodata.str1.1
                0x0000000000020681       0x34 /tmp/ccF7NaNG.ltrans3.ltrans.o
                                         0x95 (size before relaxing)
 .rodata._gPcd_FixedAtBuild_PcdSerialFifoControl
                0x00000000000206b5        0x1 /tmp/ccF7NaNG.ltrans3.ltrans.o
                0x00000000000206b5                _gPcd_FixedAtBuild_PcdReportStatusCodePropertyMask
                0x00000000000206b5                _gPcd_FixedAtBuild_PcdSerialFifoControl
 .rodata.str1.1
                0x00000000000206b6      0x2eb /tmp/ccF7NaNG.ltrans4.ltrans.o
                                        0x3d5 (size before relaxing)
 .rodata.str1.1
                0x00000000000209a1      0x488 /tmp/ccF7NaNG.ltrans5.ltrans.o
                                        0x514 (size before relaxing)
 .rodata._gPcd_FixedAtBuild_PcdCpuStackGuard
                0x0000000000020e29        0x1 /tmp/ccF7NaNG.ltrans5.ltrans.o
                0x0000000000020e29                _gPcd_FixedAtBuild_PcdFrameworkCompatibilitySupport
                0x0000000000020e29                _gPcd_FixedAtBuild_PcdVerifyNodeInList
                0x0000000000020e29                _gPcd_FixedAtBuild_PcdPerformanceLibraryPropertyMask
                0x0000000000020e29                _gPcd_FixedAtBuild_PcdHeapGuardPropertyMask
                0x0000000000020e29                _gPcd_FixedAtBuild_PcdSerialDetectCable
                0x0000000000020e29                _gPcd_FixedAtBuild_PcdSerialUseMmio
                0x0000000000020e29                _gPcd_FixedAtBuild_PcdNullPointerDetectionPropertyMask
                0x0000000000020e29                _gPcd_FixedAtBuild_PcdPropertiesTableEnable
                0x0000000000020e29                _gPcd_FixedAtBuild_PcdSerialUseHardwareFlowControl
                0x0000000000020e29                _gPcd_FixedAtBuild_PcdMemoryProfilePropertyMask
                0x0000000000020e29                _gPcd_FixedAtBuild_PcdCpuStackGuard
 *fill*         0x0000000000020e2a        0x6 
 .rodata.mHexStr
                0x0000000000020e30       0x10 /tmp/ccF7NaNG.ltrans5.ltrans.o
 .rodata._gPcd_FixedAtBuild_PcdMaximumUnicodeStringLength
                0x0000000000020e40        0x4 /tmp/ccF7NaNG.ltrans5.ltrans.o
                0x0000000000020e40                _gPcd_FixedAtBuild_PcdMaximumLinkedListLength
                0x0000000000020e40                _gPcd_FixedAtBuild_PcdMaximumAsciiStringLength
                0x0000000000020e40                _gPcd_FixedAtBuild_PcdMaximumUnicodeStringLength
 .rodata.str1.1
                0x0000000000020e44      0x51a /tmp/ccF7NaNG.ltrans6.ltrans.o
                                        0x5e7 (size before relaxing)
 .rodata.str1.1
                0x000000000002135e      0x291 /tmp/ccF7NaNG.ltrans7.ltrans.o
                                        0x2b8 (size before relaxing)
 *fill*         0x00000000000215ef        0x1 
 .rodata.mFvAttributes
                0x00000000000215f0        0x8 /tmp/ccF7NaNG.ltrans7.ltrans.o
 .rodata.mFvAttributes2
                0x00000000000215f8        0x8 /tmp/ccF7NaNG.ltrans7.ltrans.o
 .rodata.str1.1
                0x0000000000021600      0x21f /tmp/ccF7NaNG.ltrans8.ltrans.o
                                        0x2a1 (size before relaxing)
 *fill*         0x000000000002181f        0x1 
 .rodata.mPoolSizeTable.lto_priv.62
                0x0000000000021820       0x18 /tmp/ccF7NaNG.ltrans8.ltrans.o
                0x0000000000021820                mPoolSizeTable.lto_priv.62
 .rodata.str1.1
                0x0000000000021838      0x3cd /tmp/ccF7NaNG.ltrans9.ltrans.o
                                        0x436 (size before relaxing)
 .rodata.str1.1
                0x0000000000021c05      0x47b /tmp/ccF7NaNG.ltrans10.ltrans.o
                                        0x55d (size before relaxing)
 .rodata.mUefiDevicePathLibEndDevicePath
                0x0000000000022080        0x4 /tmp/ccF7NaNG.ltrans10.ltrans.o
 .rodata.str1.1
                0x0000000000022084      0x32e /tmp/ccF7NaNG.ltrans11.ltrans.o
                                        0x3b5 (size before relaxing)
 .rodata.str1.1
                0x00000000000223b2      0x522 /tmp/ccF7NaNG.ltrans12.ltrans.o
                                        0x5c2 (size before relaxing)
 .rodata.CoreInitializeGcdServices
                0x00000000000228d4       0x1c /tmp/ccF7NaNG.ltrans12.ltrans.o
 .rodata.str1.1
                0x00000000000228f0      0x171 /tmp/ccF7NaNG.ltrans13.ltrans.o
                                        0x19b (size before relaxing)
 .rodata.str1.1
                0x0000000000022a61      0x398 /tmp/ccF7NaNG.ltrans14.ltrans.o
                                        0x435 (size before relaxing)
 .rodata.str1.1
                0x0000000000022df9       0xe1 /tmp/ccF7NaNG.ltrans15.ltrans.o
                                        0x1c8 (size before relaxing)
 .rodata.str1.1
                0x0000000000022eda       0x5e /tmp/ccF7NaNG.ltrans16.ltrans.o
                                        0x167 (size before relaxing)
 .rodata.str1.1
                0x0000000000022f38      0x19c /tmp/ccF7NaNG.ltrans17.ltrans.o
                                        0x334 (size before relaxing)
 *fill*         0x00000000000230d4        0xc 
 .rodata.__FUNCTION__.13914
                0x00000000000230e0       0x17 /tmp/ccF7NaNG.ltrans17.ltrans.o
 .rodata.mDxeFileTypes
                0x00000000000230f7        0x5 /tmp/ccF7NaNG.ltrans17.ltrans.o
 .rodata.str1.1
                0x00000000000230fc      0x565 /tmp/ccF7NaNG.ltrans18.ltrans.o
                                        0x661 (size before relaxing)
 *fill*         0x0000000000023661        0x7 
 .rodata.mExceptionReservedStr
                0x0000000000023668        0x9 /tmp/ccF7NaNG.ltrans18.ltrans.o
 *fill*         0x0000000000023671        0x3 
 .rodata.mErrorCodeFlag
                0x0000000000023674        0x4 /tmp/ccF7NaNG.ltrans18.ltrans.o
                0x0000000000023674                mErrorCodeFlag
 .rodata.str1.1
                0x0000000000023678      0x1dd /tmp/ccF7NaNG.ltrans19.ltrans.o
                                        0x331 (size before relaxing)
 *fill*         0x0000000000023855        0x1 
 .rodata.str2.2
                0x0000000000023856       0x48 /tmp/ccF7NaNG.ltrans19.ltrans.o
 .rodata.str1.1
                0x000000000002389e      0x168 /tmp/ccF7NaNG.ltrans20.ltrans.o
                                        0x2b1 (size before relaxing)
 .rodata.str1.1
                0x0000000000023a06      0x231 /tmp/ccF7NaNG.ltrans21.ltrans.o
                                        0x2bd (size before relaxing)
 .rodata.str1.1
                0x0000000000023c37       0xb7 /tmp/ccF7NaNG.ltrans22.ltrans.o
                                        0x1c9 (size before relaxing)
 .rodata.str1.1
                0x0000000000023cee      0x15d /tmp/ccF7NaNG.ltrans23.ltrans.o
                                        0x2b7 (size before relaxing)
 .rodata.str1.1
                0x0000000000023e4b      0x172 /tmp/ccF7NaNG.ltrans24.ltrans.o
                                        0x3fd (size before relaxing)
 .rodata.str1.1
                0x0000000000023fbd       0x1e /tmp/ccF7NaNG.ltrans25.ltrans.o
                                        0x11d (size before relaxing)
 .rodata.str1.1
                0x0000000000023fdb       0x36 /tmp/ccF7NaNG.ltrans26.ltrans.o
                                        0x14c (size before relaxing)
 *fill*         0x0000000000024011        0xf 
 .rodata.mEventTable
                0x0000000000024020       0x20 /tmp/ccF7NaNG.ltrans26.ltrans.o
 .rodata.str1.1
                0x0000000000024040      0x15d /tmp/ccF7NaNG.ltrans27.ltrans.o
                                        0x2ba (size before relaxing)
 *fill*         0x000000000002419d        0x3 
 .rodata.__FUNCTION__.13948
                0x00000000000241a0       0x26 /tmp/ccF7NaNG.ltrans27.ltrans.o
 .rodata.str1.1
                0x00000000000241c6       0x7d /tmp/ccF7NaNG.ltrans28.ltrans.o
                                        0x100 (size before relaxing)
 .rodata.str1.1
                0x0000000000024243       0x7a /tmp/ccF7NaNG.ltrans29.ltrans.o
                                         0xd9 (size before relaxing)
 *(.got .got.*)
 .got           0x00000000000242bd        0x0 BaseDebugPrintErrorLevelLib.obj (symbol from plugin)
 .got.plt       0x00000000000242bd        0x0 BaseDebugPrintErrorLevelLib.obj (symbol from plugin)
                0x00000000000242bd                _GLOBAL_OFFSET_TABLE_
 *:AutoGen.obj(.data.g*Guid)

.plt            0x00000000000242c0        0x0
 .plt           0x00000000000242c0        0x0 BaseDebugPrintErrorLevelLib.obj (symbol from plugin)

.data           0x00000000000242c0     0x3b80
 *(.data .data.* .gnu.linkonce.d.*)
 .data.rel.local.mImageQueue
                0x00000000000242c0       0x10 /tmp/ccF7NaNG.ltrans0.ltrans.o
 .data.gEfiSmmBase2ProtocolGuid
                0x00000000000242d0       0x10 /tmp/ccF7NaNG.ltrans0.ltrans.o
 .data.gEfiSecurity2ArchProtocolGuid
                0x00000000000242e0       0x10 /tmp/ccF7NaNG.ltrans0.ltrans.o
 .data.gEfiRealTimeClockArchProtocolGuid
                0x00000000000242f0       0x10 /tmp/ccF7NaNG.ltrans0.ltrans.o
 .data.gEfiResetArchProtocolGuid
                0x0000000000024300       0x10 /tmp/ccF7NaNG.ltrans0.ltrans.o
 .data.gEfiMonotonicCounterArchProtocolGuid
                0x0000000000024310       0x10 /tmp/ccF7NaNG.ltrans0.ltrans.o
 .data.gEfiCapsuleArchProtocolGuid
                0x0000000000024320       0x10 /tmp/ccF7NaNG.ltrans0.ltrans.o
 .data.gEfiVariableWriteArchProtocolGuid
                0x0000000000024330       0x10 /tmp/ccF7NaNG.ltrans0.ltrans.o
 .data.gEfiVariableArchProtocolGuid
                0x0000000000024340       0x10 /tmp/ccF7NaNG.ltrans0.ltrans.o
 .data.gEfiRuntimeArchProtocolGuid
                0x0000000000024350       0x10 /tmp/ccF7NaNG.ltrans0.ltrans.o
                0x0000000000024350                gEfiRuntimeArchProtocolGuid
 .data.gEfiWatchdogTimerArchProtocolGuid
                0x0000000000024360       0x10 /tmp/ccF7NaNG.ltrans0.ltrans.o
 .data.gEfiBdsArchProtocolGuid
                0x0000000000024370       0x10 /tmp/ccF7NaNG.ltrans0.ltrans.o
 .data.gEfiTimerArchProtocolGuid
                0x0000000000024380       0x10 /tmp/ccF7NaNG.ltrans0.ltrans.o
                0x0000000000024380                gEfiTimerArchProtocolGuid
 .data.gEfiMetronomeArchProtocolGuid
                0x0000000000024390       0x10 /tmp/ccF7NaNG.ltrans0.ltrans.o
 .data.gEfiSecurityArchProtocolGuid
                0x00000000000243a0       0x10 /tmp/ccF7NaNG.ltrans0.ltrans.o
 *fill*         0x00000000000243b0       0x10 
 .data.rel.local.mDxeServices
                0x00000000000243c0       0xa8 /tmp/ccF7NaNG.ltrans0.ltrans.o
                0x00000000000243c0                mDxeServices
 *fill*         0x0000000000024468       0x18 
 .data.rel.local.mBootServices
                0x0000000000024480      0x178 /tmp/ccF7NaNG.ltrans0.ltrans.o
 *fill*         0x00000000000245f8        0x8 
 .data.rel.local.mMemoryProfileContext
                0x0000000000024600      0x148 /tmp/ccF7NaNG.ltrans0.ltrans.o
 *fill*         0x0000000000024748        0x8 
 .data.gEfiLoadPeImageProtocolGuid
                0x0000000000024750       0x10 /tmp/ccF7NaNG.ltrans0.ltrans.o
 .data.rel.local.mLoadPe32PrivateData
                0x0000000000024760       0x20 /tmp/ccF7NaNG.ltrans0.ltrans.o
 .data.gEfiLoadedImageProtocolGuid
                0x0000000000024780       0x10 /tmp/ccF7NaNG.ltrans0.ltrans.o
                0x0000000000024780                gEfiLoadedImageProtocolGuid
 .data.gEfiCurrentTpl
                0x0000000000024790        0x8 /tmp/ccF7NaNG.ltrans0.ltrans.o
                0x0000000000024790                gEfiCurrentTpl
 *fill*         0x0000000000024798        0x8 
 .data.mCorePrivateImage
                0x00000000000247a0      0x188 /tmp/ccF7NaNG.ltrans0.ltrans.o
 *fill*         0x0000000000024928        0x8 
 .data.gEfiHobMemoryAllocModuleGuid
                0x0000000000024930       0x10 /tmp/ccF7NaNG.ltrans0.ltrans.o
 .data.gEfiStatusCodeRuntimeProtocolGuid
                0x0000000000024940       0x10 /tmp/ccF7NaNG.ltrans0.ltrans.o
 .data.gEfiDebugImageInfoTableGuid
                0x0000000000024950       0x10 /tmp/ccF7NaNG.ltrans0.ltrans.o
 .data.gIdleLoopEventGuid
                0x0000000000024960       0x10 /tmp/ccF7NaNG.ltrans0.ltrans.o
 *fill*         0x0000000000024970       0x10 
 .data.rel.local.mProfileProtocol
                0x0000000000024980       0x30 /tmp/ccF7NaNG.ltrans0.ltrans.o
 .data.gEdkiiMemoryProfileGuid
                0x00000000000249b0       0x10 /tmp/ccF7NaNG.ltrans0.ltrans.o
 .data.gEfiEventReadyToBootGuid
                0x00000000000249c0       0x10 /tmp/ccF7NaNG.ltrans0.ltrans.o
 .data.gEfiEndOfDxeEventGroupGuid
                0x00000000000249d0       0x10 /tmp/ccF7NaNG.ltrans0.ltrans.o
 .data.gEfiCpuArchProtocolGuid
                0x00000000000249e0       0x10 /tmp/ccF7NaNG.ltrans0.ltrans.o
                0x00000000000249e0                gEfiCpuArchProtocolGuid
 *fill*         0x00000000000249f0       0x10 
 .data.rel.local.mOptionalProtocols
                0x0000000000024a00       0x78 /tmp/ccF7NaNG.ltrans0.ltrans.o
 *fill*         0x0000000000024a78        0x8 
 .data.gEfiFirmwareVolumeBlockProtocolGuid
                0x0000000000024a80       0x10 /tmp/ccF7NaNG.ltrans0.ltrans.o
                0x0000000000024a80                gEfiFirmwareVolumeBlockProtocolGuid
 .data.gEfiFirmwareVolume2ProtocolGuid
                0x0000000000024a90       0x10 /tmp/ccF7NaNG.ltrans0.ltrans.o
                0x0000000000024a90                gEfiFirmwareVolume2ProtocolGuid
 .data.rel.ro.local.mMissingProtocols
                0x0000000000024aa0       0xe0 /tmp/ccF7NaNG.ltrans0.ltrans.o
 .data.rel.local.mDiscoveredList
                0x0000000000024b80       0x10 /tmp/ccF7NaNG.ltrans0.ltrans.o
                0x0000000000024b80                mDiscoveredList
 *fill*         0x0000000000024b90       0x10 
 .data.rel.local.mArchProtocols
                0x0000000000024ba0      0x230 /tmp/ccF7NaNG.ltrans0.ltrans.o
                0x0000000000024ba0                mArchProtocols
 .data.rel.local.gEfiDecompress
                0x0000000000024dd0       0x10 /tmp/ccF7NaNG.ltrans0.ltrans.o
 .data.gEfiDecompressProtocolGuid
                0x0000000000024de0       0x10 /tmp/ccF7NaNG.ltrans0.ltrans.o
                0x0000000000024de0                gEfiDecompressProtocolGuid
 .data.gEfiVectorHandoffTableGuid
                0x0000000000024df0       0x10 /tmp/ccF7NaNG.ltrans0.ltrans.o
 .data.gMemoryTypeInformation
                0x0000000000024e00       0x80 /tmp/ccF7NaNG.ltrans0.ltrans.o
                0x0000000000024e00                gMemoryTypeInformation
 .data.gEfiMemoryTypeInformationGuid
                0x0000000000024e80       0x10 /tmp/ccF7NaNG.ltrans0.ltrans.o
 .data.gEfiHobListGuid
                0x0000000000024e90       0x10 /tmp/ccF7NaNG.ltrans0.ltrans.o
 .data.gEfiDxeServicesTableGuid
                0x0000000000024ea0       0x10 /tmp/ccF7NaNG.ltrans0.ltrans.o
 .data.rel.local.gDxeCoreRT
                0x0000000000024eb0        0x8 /tmp/ccF7NaNG.ltrans0.ltrans.o
                0x0000000000024eb0                gDxeCoreRT
 *fill*         0x0000000000024eb8        0x8 
 .data.rel.local.mEfiRuntimeServicesTableTemplate
                0x0000000000024ec0       0x88 /tmp/ccF7NaNG.ltrans0.ltrans.o
 *fill*         0x0000000000024f48       0x18 
 .data.rel.local.mEfiSystemTableTemplate
                0x0000000000024f60       0x78 /tmp/ccF7NaNG.ltrans0.ltrans.o
 *fill*         0x0000000000024fd8        0x8 
 .data.gEfiVectorHandoffInfoPpiGuid
                0x0000000000024fe0       0x10 /tmp/ccF7NaNG.ltrans0.ltrans.o
 .data.gEfiEbcProtocolGuid
                0x0000000000024ff0       0x10 /tmp/ccF7NaNG.ltrans1.ltrans.o
 .data.gEfiFileInfoGuid
                0x0000000000025000       0x10 /tmp/ccF7NaNG.ltrans1.ltrans.o
 .data.gEfiHiiPackageListProtocolGuid
                0x0000000000025010       0x10 /tmp/ccF7NaNG.ltrans1.ltrans.o
                0x0000000000025010                gEfiHiiPackageListProtocolGuid
 .data.gEfiLoadFileProtocolGuid
                0x0000000000025020       0x10 /tmp/ccF7NaNG.ltrans1.ltrans.o
 .data.gEfiLoadFile2ProtocolGuid
                0x0000000000025030       0x10 /tmp/ccF7NaNG.ltrans1.ltrans.o
 .data.gEfiSimpleFileSystemProtocolGuid
                0x0000000000025040       0x10 /tmp/ccF7NaNG.ltrans1.ltrans.o
 .data.gEfiStatusCodeDataTypeDebugGuid
                0x0000000000025050       0x10 /tmp/ccF7NaNG.ltrans2.ltrans.o
 .data.mPropertiesTableLock
                0x0000000000025060       0x18 /tmp/ccF7NaNG.ltrans4.ltrans.o
 *fill*         0x0000000000025078        0x8 
 .data.rel.local.mImagePropertiesPrivateData
                0x0000000000025080       0x28 /tmp/ccF7NaNG.ltrans4.ltrans.o
                0x0000000000025080                mImagePropertiesPrivateData
 *fill*         0x00000000000250a8        0x8 
 .data.gEfiPropertiesTableGuid
                0x00000000000250b0       0x10 /tmp/ccF7NaNG.ltrans4.ltrans.o
 .data.gEfiMemoryAttributesTableGuid
                0x00000000000250c0       0x10 /tmp/ccF7NaNG.ltrans4.ltrans.o
 .data.mPropertiesTable
                0x00000000000250d0       0x10 /tmp/ccF7NaNG.ltrans4.ltrans.o
 .data.gMemoryLock
                0x00000000000250e0       0x18 /tmp/ccF7NaNG.ltrans5.ltrans.o
                0x00000000000250e0                gMemoryLock
 *fill*         0x00000000000250f8        0x8 
 .data.rel.local.mGcdMemorySpaceMap
                0x0000000000025100       0x10 /tmp/ccF7NaNG.ltrans5.ltrans.o
                0x0000000000025100                mGcdMemorySpaceMap
 .data.mDefaultBaseAddress
                0x0000000000025110        0x8 /tmp/ccF7NaNG.ltrans5.ltrans.o
                0x0000000000025110                mDefaultBaseAddress
 .data.mDefaultMaximumAddress
                0x0000000000025118        0x8 /tmp/ccF7NaNG.ltrans5.ltrans.o
                0x0000000000025118                mDefaultMaximumAddress
 .data.mMemoryTypeStatistics
                0x0000000000025120      0x300 /tmp/ccF7NaNG.ltrans5.ltrans.o
                0x0000000000025120                mMemoryTypeStatistics
 .data.rel.local.gMemoryMap
                0x0000000000025420       0x10 /tmp/ccF7NaNG.ltrans5.ltrans.o
                0x0000000000025420                gMemoryMap
 *fill*         0x0000000000025430       0x10 
 .data.rel.ro.local.mStatusString
                0x0000000000025440      0x138 /tmp/ccF7NaNG.ltrans5.ltrans.o
 *fill*         0x0000000000025578        0x8 
 .data.gEfiAcpiDescriptionGuid
                0x0000000000025580       0x10 /tmp/ccF7NaNG.ltrans6.ltrans.o
 .data.mFvPIWGDevicePathTemplate
                0x0000000000025590       0x18 /tmp/ccF7NaNG.ltrans7.ltrans.o
 *fill*         0x00000000000255a8        0x8 
 .data.mFvMemmapDevicePathTemplate
                0x00000000000255b0       0x1c /tmp/ccF7NaNG.ltrans7.ltrans.o
 *fill*         0x00000000000255cc       0x14 
 .data.rel.local.mFwVolBlock
                0x00000000000255e0       0x80 /tmp/ccF7NaNG.ltrans7.ltrans.o
 .data.rel.local.mStreamRoot
                0x0000000000025660       0x10 /tmp/ccF7NaNG.ltrans7.ltrans.o
                0x0000000000025660                mStreamRoot
 .data.gEfiFirmwareFileSystem2Guid
                0x0000000000025670       0x10 /tmp/ccF7NaNG.ltrans7.ltrans.o
 .data.rel.local.mPoolHeadList
                0x0000000000025680       0x10 /tmp/ccF7NaNG.ltrans8.ltrans.o
 .data.mPoolMemoryLock
                0x0000000000025690       0x18 /tmp/ccF7NaNG.ltrans8.ltrans.o
 *fill*         0x00000000000256a8        0x8 
 .data.gEfiEventMemoryMapChangeGuid
                0x00000000000256b0       0x10 /tmp/ccF7NaNG.ltrans8.ltrans.o
 .data.rel.local.mFreeMemoryMapEntryList
                0x00000000000256c0       0x10 /tmp/ccF7NaNG.ltrans8.ltrans.o
 .data.rel.local.gHandleList
                0x00000000000256d0       0x10 /tmp/ccF7NaNG.ltrans9.ltrans.o
                0x00000000000256d0                gHandleList
 .data.mGcdMemorySpaceLock
                0x00000000000256e0       0x18 /tmp/ccF7NaNG.ltrans9.ltrans.o
 *fill*         0x00000000000256f8        0x8 
 .data.mDispatcherLock
                0x0000000000025700       0x18 /tmp/ccF7NaNG.ltrans11.ltrans.o
 *fill*         0x0000000000025718        0x8 
 .data.gEfiEventDxeDispatchGuid
                0x0000000000025720       0x10 /tmp/ccF7NaNG.ltrans11.ltrans.o
 *fill*         0x0000000000025730       0x10 
 .data.rel.ro.local.mGcdIoTypeNames
                0x0000000000025740       0x20 /tmp/ccF7NaNG.ltrans12.ltrans.o
                0x0000000000025740                mGcdIoTypeNames
 .data.rel.ro.local.mGcdAllocationTypeNames
                0x0000000000025760       0x30 /tmp/ccF7NaNG.ltrans12.ltrans.o
                0x0000000000025760                mGcdAllocationTypeNames
 *fill*         0x0000000000025790       0x10 
 .data.mAttributeConversionTable
                0x00000000000257a0      0x168 /tmp/ccF7NaNG.ltrans12.ltrans.o
 *fill*         0x0000000000025908       0x18 
 .data.mGcdIoSpaceMapEntryTemplate
                0x0000000000025920       0x50 /tmp/ccF7NaNG.ltrans12.ltrans.o
 *fill*         0x0000000000025970       0x10 
 .data.mGcdMemorySpaceMapEntryTemplate
                0x0000000000025980       0x50 /tmp/ccF7NaNG.ltrans12.ltrans.o
 .data.mGcdIoSpaceLock
                0x00000000000259d0       0x18 /tmp/ccF7NaNG.ltrans12.ltrans.o
                0x00000000000259d0                mGcdIoSpaceLock
 *fill*         0x00000000000259e8        0x8 
 .data.rel.local.mGcdIoSpaceMap
                0x00000000000259f0       0x10 /tmp/ccF7NaNG.ltrans12.ltrans.o
                0x00000000000259f0                mGcdIoSpaceMap
 .data.gEfiBusSpecificDriverOverrideProtocolGuid
                0x0000000000025a00       0x10 /tmp/ccF7NaNG.ltrans13.ltrans.o
 .data.gEfiDriverFamilyOverrideProtocolGuid
                0x0000000000025a10       0x10 /tmp/ccF7NaNG.ltrans13.ltrans.o
 .data.gEfiPlatformDriverOverrideProtocolGuid
                0x0000000000025a20       0x10 /tmp/ccF7NaNG.ltrans13.ltrans.o
 .data.gEfiDriverBindingProtocolGuid
                0x0000000000025a30       0x10 /tmp/ccF7NaNG.ltrans13.ltrans.o
 .data.gProtocolDatabaseLock
                0x0000000000025a40       0x18 /tmp/ccF7NaNG.ltrans15.ltrans.o
                0x0000000000025a40                gProtocolDatabaseLock
 *fill*         0x0000000000025a58        0x8 
 .data.mMemoryProfileLock
                0x0000000000025a60       0x18 /tmp/ccF7NaNG.ltrans16.ltrans.o
 *fill*         0x0000000000025a78        0x8 
 .data.mLevelShift
                0x0000000000025a80       0x28 /tmp/ccF7NaNG.ltrans16.ltrans.o
                0x0000000000025a80                mLevelShift
 *fill*         0x0000000000025aa8       0x18 
 .data.mLevelMask
                0x0000000000025ac0       0x28 /tmp/ccF7NaNG.ltrans16.ltrans.o
                0x0000000000025ac0                mLevelMask
 .data.mMapLevel
                0x0000000000025ae8        0x8 /tmp/ccF7NaNG.ltrans16.ltrans.o
                0x0000000000025ae8                mMapLevel
 .data.rel.local.mFvHandleList
                0x0000000000025af0       0x10 /tmp/ccF7NaNG.ltrans17.ltrans.o
 .data.rel.local.mScheduledQueue
                0x0000000000025b00       0x10 /tmp/ccF7NaNG.ltrans17.ltrans.o
                0x0000000000025b00                mScheduledQueue
 .data.gAprioriGuid
                0x0000000000025b10       0x10 /tmp/ccF7NaNG.ltrans17.ltrans.o
 .data.gEfiDevicePathProtocolGuid
                0x0000000000025b20       0x10 /tmp/ccF7NaNG.ltrans17.ltrans.o
                0x0000000000025b20                gEfiDevicePathProtocolGuid
 *fill*         0x0000000000025b30       0x10 
 .data.rel.ro.local.mExceptionNameStr
                0x0000000000025b40       0xa8 /tmp/ccF7NaNG.ltrans18.ltrans.o
 *fill*         0x0000000000025be8       0x18 
 .data.rel.ro.local.mMachineTypeInfo
                0x0000000000025c00       0x50 /tmp/ccF7NaNG.ltrans19.ltrans.o
 *fill*         0x0000000000025c50       0x10 
 .data.rel.ro.local.mGcdMemoryTypeNames
                0x0000000000025c60       0x38 /tmp/ccF7NaNG.ltrans20.ltrans.o
                0x0000000000025c60                mGcdMemoryTypeNames
 *fill*         0x0000000000025c98        0x8 
 .data.gEfiFirmwareFileSystem3Guid
                0x0000000000025ca0       0x10 /tmp/ccF7NaNG.ltrans21.ltrans.o
                0x0000000000025ca0                gEfiFirmwareFileSystem3Guid
 *fill*         0x0000000000025cb0       0x10 
 .data.rel.local.mFvDevice
                0x0000000000025cc0       0xa0 /tmp/ccF7NaNG.ltrans21.ltrans.o
 .data.rel.local.gRuntimeTemplate
                0x0000000000025d60       0x50 /tmp/ccF7NaNG.ltrans23.ltrans.o
                0x0000000000025d60                gRuntimeTemplate
 .data.rel.local.gRuntime
                0x0000000000025db0        0x8 /tmp/ccF7NaNG.ltrans23.ltrans.o
                0x0000000000025db0                gRuntime
 *fill*         0x0000000000025db8        0x8 
 .data.gEfiEventExitBootServicesGuid
                0x0000000000025dc0       0x10 /tmp/ccF7NaNG.ltrans23.ltrans.o
                0x0000000000025dc0                gEfiEventExitBootServicesGuid
 .data.gEventExitBootServicesFailedGuid
                0x0000000000025dd0       0x10 /tmp/ccF7NaNG.ltrans23.ltrans.o
 .data.rel.local.mEfiTimerList
                0x0000000000025de0       0x10 /tmp/ccF7NaNG.ltrans26.ltrans.o
 .data.mEfiSystemTimeLock
                0x0000000000025df0       0x18 /tmp/ccF7NaNG.ltrans26.ltrans.o
 *fill*         0x0000000000025e08        0x8 
 .data.mEfiTimerLock
                0x0000000000025e10       0x18 /tmp/ccF7NaNG.ltrans26.ltrans.o
 *fill*         0x0000000000025e28        0x8 
 .data.gEventQueueLock
                0x0000000000025e30       0x18 /tmp/ccF7NaNG.ltrans26.ltrans.o
                0x0000000000025e30                gEventQueueLock
 *fill*         0x0000000000025e48        0x8 
 .data.rel.local.gEventSignalQueue
                0x0000000000025e50       0x10 /tmp/ccF7NaNG.ltrans26.ltrans.o
 .data.gEfiEventVirtualAddressChangeGuid
                0x0000000000025e60       0x10 /tmp/ccF7NaNG.ltrans26.ltrans.o
 .data.rel.local.mProtocolDatabase
                0x0000000000025e70       0x10 /tmp/ccF7NaNG.ltrans26.ltrans.o
                0x0000000000025e70                mProtocolDatabase
 .data.gEfiLoadedImageDevicePathProtocolGuid
                0x0000000000025e80       0x10 /tmp/ccF7NaNG.ltrans27.ltrans.o
                0x0000000000025e80                gEfiLoadedImageDevicePathProtocolGuid
 .data.gEfiCallerIdGuid
                0x0000000000025e90       0x10 /tmp/ccF7NaNG.ltrans29.ltrans.o
                0x0000000000025e90                gEfiCallerIdGuid
 .data.gEfiStatusCodeSpecificDataGuid
                0x0000000000025ea0       0x10 /tmp/ccF7NaNG.ltrans29.ltrans.o
 *(.bss .bss.*)
 .bss.gSmmBase2
                0x0000000000025eb0        0x8 /tmp/ccF7NaNG.ltrans0.ltrans.o
                0x0000000000025eb0                gSmmBase2
 .bss.gSecurity2
                0x0000000000025eb8        0x8 /tmp/ccF7NaNG.ltrans0.ltrans.o
                0x0000000000025eb8                gSecurity2
 .bss.gWatchdogTimer
                0x0000000000025ec0        0x8 /tmp/ccF7NaNG.ltrans0.ltrans.o
                0x0000000000025ec0                gWatchdogTimer
 .bss.gMetronome
                0x0000000000025ec8        0x8 /tmp/ccF7NaNG.ltrans0.ltrans.o
                0x0000000000025ec8                gMetronome
 .bss.gSecurity
                0x0000000000025ed0        0x8 /tmp/ccF7NaNG.ltrans0.ltrans.o
                0x0000000000025ed0                gSecurity
 *fill*         0x0000000000025ed8        0x8 
 .bss.mExternalInterruptHandlerTable
                0x0000000000025ee0      0x100 /tmp/ccF7NaNG.ltrans0.ltrans.o
 .bss.mReservedVectorsData
                0x0000000000025fe0      0xb00 /tmp/ccF7NaNG.ltrans0.ltrans.o
 .bss.mExceptionHandlerData
                0x0000000000026ae0       0x20 /tmp/ccF7NaNG.ltrans0.ltrans.o
                0x0000000000026ae0                mExceptionHandlerData
 .bss.mPoolHead
                0x0000000000026b00      0xd98 /tmp/ccF7NaNG.ltrans0.ltrans.o
                0x0000000000026b00                mPoolHead
 .bss._gPcd_BinaryPatch_PcdLoadFixAddressBootTimeCodePageNumber
                0x0000000000027898        0x4 /tmp/ccF7NaNG.ltrans0.ltrans.o
                0x0000000000027898                _gPcd_BinaryPatch_PcdLoadFixAddressBootTimeCodePageNumber
 .bss._gPcd_BinaryPatch_PcdLoadFixAddressRuntimeCodePageNumber
                0x000000000002789c        0x4 /tmp/ccF7NaNG.ltrans0.ltrans.o
                0x000000000002789c                _gPcd_BinaryPatch_PcdLoadFixAddressRuntimeCodePageNumber
 .bss.mMemoryProfileDriverPath
                0x00000000000278a0        0x8 /tmp/ccF7NaNG.ltrans0.ltrans.o
                0x00000000000278a0                mMemoryProfileDriverPath
 .bss.mMemoryProfileDriverPathSize
                0x00000000000278a8        0x8 /tmp/ccF7NaNG.ltrans0.ltrans.o
                0x00000000000278a8                mMemoryProfileDriverPathSize
 .bss.mMemoryProfileRecordingEnable
                0x00000000000278b0        0x1 /tmp/ccF7NaNG.ltrans0.ltrans.o
                0x00000000000278b0                mMemoryProfileRecordingEnable
 .bss.mMemoryProfileGettingStatus
                0x00000000000278b1        0x1 /tmp/ccF7NaNG.ltrans0.ltrans.o
                0x00000000000278b1                mMemoryProfileGettingStatus
 *fill*         0x00000000000278b2        0x6 
 .bss.mMemoryProfileContextPtr
                0x00000000000278b8        0x8 /tmp/ccF7NaNG.ltrans0.ltrans.o
                0x00000000000278b8                mMemoryProfileContextPtr
 .bss.mDxeCoreImageMachineType
                0x00000000000278c0        0x2 /tmp/ccF7NaNG.ltrans0.ltrans.o
                0x00000000000278c0                mDxeCoreImageMachineType
 *fill*         0x00000000000278c2        0x6 
 .bss.mCurrentImage
                0x00000000000278c8        0x8 /tmp/ccF7NaNG.ltrans0.ltrans.o
                0x00000000000278c8                mCurrentImage
 .bss.gDxeCoreFileName
                0x00000000000278d0        0x8 /tmp/ccF7NaNG.ltrans0.ltrans.o
                0x00000000000278d0                gDxeCoreFileName
 .bss.gST       0x00000000000278d8        0x8 /tmp/ccF7NaNG.ltrans0.ltrans.o
                0x00000000000278d8                gST
 .bss.gImageHandle
                0x00000000000278e0        0x8 /tmp/ccF7NaNG.ltrans0.ltrans.o
 .bss.mHandle   0x00000000000278e8        0x8 /tmp/ccF7NaNG.ltrans0.ltrans.o
 .bss.gRT       0x00000000000278f0        0x8 /tmp/ccF7NaNG.ltrans0.ltrans.o
 .bss.mExtractGetInfoHandlerTable
                0x00000000000278f8        0x8 /tmp/ccF7NaNG.ltrans0.ltrans.o
                0x00000000000278f8                mExtractGetInfoHandlerTable
 .bss.mExtractDecodeHandlerTable
                0x0000000000027900        0x8 /tmp/ccF7NaNG.ltrans0.ltrans.o
                0x0000000000027900                mExtractDecodeHandlerTable
 .bss.mMaxNumberOfExtractHandler
                0x0000000000027908        0x4 /tmp/ccF7NaNG.ltrans0.ltrans.o
 *fill*         0x000000000002790c        0x4 
 .bss.mDebugTable
                0x0000000000027910        0x8 /tmp/ccF7NaNG.ltrans0.ltrans.o
                0x0000000000027910                mDebugTable
 .bss.mEfiCheckTimerEvent
                0x0000000000027918        0x8 /tmp/ccF7NaNG.ltrans0.ltrans.o
                0x0000000000027918                mEfiCheckTimerEvent
 .bss.gIdleLoopEvent
                0x0000000000027920        0x8 /tmp/ccF7NaNG.ltrans0.ltrans.o
                0x0000000000027920                gIdleLoopEvent
 *fill*         0x0000000000027928       0x18 
 .bss.gEventQueue
                0x0000000000027940      0x200 /tmp/ccF7NaNG.ltrans0.ltrans.o
                0x0000000000027940                gEventQueue
 .bss.mProtectedImageRecordList.lto_priv.69
                0x0000000000027b40       0x10 /tmp/ccF7NaNG.ltrans0.ltrans.o
                0x0000000000027b40                mProtectedImageRecordList.lto_priv.69
 .bss.gEfiFwVolBlockNotifyReg
                0x0000000000027b50        0x8 /tmp/ccF7NaNG.ltrans0.ltrans.o
                0x0000000000027b50                gEfiFwVolBlockNotifyReg
 .bss.mExtractHandlerGuidTable
                0x0000000000027b58        0x8 /tmp/ccF7NaNG.ltrans0.ltrans.o
                0x0000000000027b58                mExtractHandlerGuidTable
 .bss.mFwVolEventRegistration
                0x0000000000027b60        0x8 /tmp/ccF7NaNG.ltrans0.ltrans.o
                0x0000000000027b60                mFwVolEventRegistration
 .bss.gBds      0x0000000000027b68        0x8 /tmp/ccF7NaNG.ltrans0.ltrans.o
 .bss.mDecompressHandle
                0x0000000000027b70        0x8 /tmp/ccF7NaNG.ltrans0.ltrans.o
 *fill*         0x0000000000027b78        0x8 
 .bss.gLoadModuleAtFixAddressConfigurationTable
                0x0000000000027b80       0x10 /tmp/ccF7NaNG.ltrans0.ltrans.o
                0x0000000000027b80                gLoadModuleAtFixAddressConfigurationTable
 .bss.gDxeCoreLoadedImage
                0x0000000000027b90        0x8 /tmp/ccF7NaNG.ltrans0.ltrans.o
                0x0000000000027b90                gDxeCoreLoadedImage
 .bss.mDxeCodeMemoryRangeUsageBitMap
                0x0000000000027b98        0x8 /tmp/ccF7NaNG.ltrans1.ltrans.o
 .bss.mPropertiesTableEnable
                0x0000000000027ba0        0x1 /tmp/ccF7NaNG.ltrans4.ltrans.o
 *fill*         0x0000000000027ba1        0x7 
 .bss.mMemoryAttributesTable
                0x0000000000027ba8        0x8 /tmp/ccF7NaNG.ltrans4.ltrans.o
 .bss.mMaxTableEntries
                0x0000000000027bb0        0x8 /tmp/ccF7NaNG.ltrans5.ltrans.o
                0x0000000000027bb0                mMaxTableEntries
 *fill*         0x0000000000027bb8        0x8 
 .bss.mDebugInfoTableHeader
                0x0000000000027bc0       0x10 /tmp/ccF7NaNG.ltrans5.ltrans.o
                0x0000000000027bc0                mDebugInfoTableHeader
 .bss.gDxeCoreImageHandle
                0x0000000000027bd0        0x8 /tmp/ccF7NaNG.ltrans5.ltrans.o
                0x0000000000027bd0                gDxeCoreImageHandle
 .bss.gAcpiDesc
                0x0000000000027bd8        0x8 /tmp/ccF7NaNG.ltrans6.ltrans.o
 .bss.mFreeMapStack
                0x0000000000027be0        0x8 /tmp/ccF7NaNG.ltrans8.ltrans.o
 .bss.gLoadFixedAddressCodeMemoryReady
                0x0000000000027be8        0x1 /tmp/ccF7NaNG.ltrans8.ltrans.o
                0x0000000000027be8                gLoadFixedAddressCodeMemoryReady
 .bss.mMemoryTypeInformationInitialized
                0x0000000000027be9        0x1 /tmp/ccF7NaNG.ltrans8.ltrans.o
 *fill*         0x0000000000027bea        0x6 
 .bss.gHandleDatabaseKey
                0x0000000000027bf0        0x8 /tmp/ccF7NaNG.ltrans9.ltrans.o
                0x0000000000027bf0                gHandleDatabaseKey
 .bss.mDepexEvaluationStackPointer
                0x0000000000027bf8        0x8 /tmp/ccF7NaNG.ltrans11.ltrans.o
                0x0000000000027bf8                mDepexEvaluationStackPointer
 .bss.mDepexEvaluationStack
                0x0000000000027c00        0x8 /tmp/ccF7NaNG.ltrans11.ltrans.o
                0x0000000000027c00                mDepexEvaluationStack
 .bss.gDispatcherRunning
                0x0000000000027c08        0x1 /tmp/ccF7NaNG.ltrans11.ltrans.o
 *fill*         0x0000000000027c09        0x7 
 .bss.gHobList  0x0000000000027c10        0x8 /tmp/ccF7NaNG.ltrans12.ltrans.o
                0x0000000000027c10                gHobList
 *fill*         0x0000000000027c18        0x8 
 .bss.mMapStack
                0x0000000000027c20      0x180 /tmp/ccF7NaNG.ltrans14.ltrans.o
                0x0000000000027c20                mMapStack
 .bss.mMapDepth
                0x0000000000027da0        0x8 /tmp/ccF7NaNG.ltrans14.ltrans.o
                0x0000000000027da0                mMapDepth
 .bss.mEfiLocateHandleRequest
                0x0000000000027da8        0x8 /tmp/ccF7NaNG.ltrans15.ltrans.o
 .bss.mGuardedMemoryMap
                0x0000000000027db0        0x8 /tmp/ccF7NaNG.ltrans16.ltrans.o
                0x0000000000027db0                mGuardedMemoryMap
 .bss.mOnGuarding
                0x0000000000027db8        0x1 /tmp/ccF7NaNG.ltrans16.ltrans.o
                0x0000000000027db8                mOnGuarding
 *fill*         0x0000000000027db9        0x7 
 .bss.mFvDevicePath
                0x0000000000027dc0       0x18 /tmp/ccF7NaNG.ltrans17.ltrans.o
                0x0000000000027dc0                mFvDevicePath
 .bss.mSystemTableAllocateSize
                0x0000000000027dd8        0x8 /tmp/ccF7NaNG.ltrans22.ltrans.o
 .bss.mMemoryMapKey
                0x0000000000027de0        0x8 /tmp/ccF7NaNG.ltrans23.ltrans.o
                0x0000000000027de0                mMemoryMapKey
 .bss.mImageProtectionPolicy
                0x0000000000027de8        0x4 /tmp/ccF7NaNG.ltrans23.ltrans.o
                0x0000000000027de8                mImageProtectionPolicy
 *fill*         0x0000000000027dec        0x4 
 .bss.gDxeCoreST
                0x0000000000027df0        0x8 /tmp/ccF7NaNG.ltrans23.ltrans.o
                0x0000000000027df0                gDxeCoreST
 .bss.gCpu      0x0000000000027df8        0x8 /tmp/ccF7NaNG.ltrans23.ltrans.o
                0x0000000000027df8                gCpu
 .bss.gMemoryMapTerminated
                0x0000000000027e00        0x1 /tmp/ccF7NaNG.ltrans23.ltrans.o
                0x0000000000027e00                gMemoryMapTerminated
 *fill*         0x0000000000027e01        0x7 
 .bss.gTimer    0x0000000000027e08        0x8 /tmp/ccF7NaNG.ltrans23.ltrans.o
                0x0000000000027e08                gTimer
 .bss.mMemoryAttributesTableReadyToBoot
                0x0000000000027e10        0x1 /tmp/ccF7NaNG.ltrans24.ltrans.o
 *fill*         0x0000000000027e11        0x7 
 .bss.mEfiSystemTime
                0x0000000000027e18        0x8 /tmp/ccF7NaNG.ltrans26.ltrans.o
 .bss.gEventPending
                0x0000000000027e20        0x8 /tmp/ccF7NaNG.ltrans26.ltrans.o
                0x0000000000027e20                gEventPending
 .bss.mDepexEvaluationStackEnd
                0x0000000000027e28        0x8 /tmp/ccF7NaNG.ltrans26.ltrans.o
 .bss.mStatusProtocol
                0x0000000000027e30        0x8 /tmp/ccF7NaNG.ltrans29.ltrans.o
                0x0000000000027e30                mStatusProtocol
 .bss.gBS       0x0000000000027e38        0x8 /tmp/ccF7NaNG.ltrans29.ltrans.o
                0x0000000000027e38                gBS

.eh_frame       0x0000000000027e40        0x0
 *(.eh_frame)
 .eh_frame      0x0000000000027e40        0x0 BaseDebugPrintErrorLevelLib.obj (symbol from plugin)

.dynbss         0x0000000000027e40        0x0
 .dynbss        0x0000000000027e40        0x0 BaseDebugPrintErrorLevelLib.obj (symbol from plugin)

.gnu.version_d  0x0000000000027e40        0x0
 .gnu.version_d
                0x0000000000027e40        0x0 BaseDebugPrintErrorLevelLib.obj (symbol from plugin)

.gnu.version    0x0000000000027e40        0x0
 .gnu.version   0x0000000000027e40        0x0 BaseDebugPrintErrorLevelLib.obj (symbol from plugin)

.gnu.version_r  0x0000000000027e40        0x0
 .gnu.version_r
                0x0000000000027e40        0x0 BaseDebugPrintErrorLevelLib.obj (symbol from plugin)

.rela           0x0000000000027e40     0x1cc8
 *(.rela .rela.*)
 .rela.plt      0x0000000000027e40        0x0 BaseDebugPrintErrorLevelLib.obj (symbol from plugin)
 .rela.got      0x0000000000027e40        0x0 BaseDebugPrintErrorLevelLib.obj (symbol from plugin)
 .rela.bss      0x0000000000027e40        0x0 BaseDebugPrintErrorLevelLib.obj (symbol from plugin)
 .rela.ifunc    0x0000000000027e40        0x0 BaseDebugPrintErrorLevelLib.obj (symbol from plugin)
 .rela.text     0x0000000000027e40      0x360 BaseDebugPrintErrorLevelLib.obj (symbol from plugin)
 .rela.text.DxeMain
                0x00000000000281a0        0x0 BaseDebugPrintErrorLevelLib.obj (symbol from plugin)
 .rela.data.rel.local.mImageQueue
                0x00000000000281a0       0x30 BaseDebugPrintErrorLevelLib.obj (symbol from plugin)
 .rela.data.rel.local.mDxeServices
                0x00000000000281d0      0x1b0 BaseDebugPrintErrorLevelLib.obj (symbol from plugin)
 .rela.data.rel.local.mBootServices
                0x0000000000028380      0x408 BaseDebugPrintErrorLevelLib.obj (symbol from plugin)
 .rela.data.rel.local.mMemoryProfileContext
                0x0000000000028788       0x18 BaseDebugPrintErrorLevelLib.obj (symbol from plugin)
 .rela.data.rel.local.mLoadPe32PrivateData
                0x00000000000287a0       0x30 BaseDebugPrintErrorLevelLib.obj (symbol from plugin)
 .rela.data.rel.local.mProfileProtocol
                0x00000000000287d0       0x90 BaseDebugPrintErrorLevelLib.obj (symbol from plugin)
 .rela.data.rel.local.mOptionalProtocols
                0x0000000000028860       0x60 BaseDebugPrintErrorLevelLib.obj (symbol from plugin)
 .rela.data.rel.ro.local.mMissingProtocols
                0x00000000000288c0      0x288 BaseDebugPrintErrorLevelLib.obj (symbol from plugin)
 .rela.data.rel.local.mDiscoveredList
                0x0000000000028b48       0x30 BaseDebugPrintErrorLevelLib.obj (symbol from plugin)
 .rela.data.rel.local.mArchProtocols
                0x0000000000028b78      0x1e0 BaseDebugPrintErrorLevelLib.obj (symbol from plugin)
 .rela.data.rel.local.gEfiDecompress
                0x0000000000028d58       0x30 BaseDebugPrintErrorLevelLib.obj (symbol from plugin)
 .rela.data.rel.ro.local.gDxeCoreDS
                0x0000000000028d88        0x0 BaseDebugPrintErrorLevelLib.obj (symbol from plugin)
 .rela.data.rel.local.gDxeCoreRT
                0x0000000000028d88       0x18 BaseDebugPrintErrorLevelLib.obj (symbol from plugin)
 .rela.data.rel.local.mEfiRuntimeServicesTableTemplate
                0x0000000000028da0      0x150 BaseDebugPrintErrorLevelLib.obj (symbol from plugin)
 .rela.data.rel.local.mEfiSystemTableTemplate
                0x0000000000028ef0       0x18 BaseDebugPrintErrorLevelLib.obj (symbol from plugin)
 .rela.text.CoreLoadImageCommon
                0x0000000000028f08        0x0 BaseDebugPrintErrorLevelLib.obj (symbol from plugin)
 .rela.text.DebugAssert
                0x0000000000028f08        0x0 BaseDebugPrintErrorLevelLib.obj (symbol from plugin)
 .rela.text.AsciiStrLen
                0x0000000000028f08        0x0 BaseDebugPrintErrorLevelLib.obj (symbol from plugin)
 .rela.text.InternalBaseLibIsListValid
                0x0000000000028f08        0x0 BaseDebugPrintErrorLevelLib.obj (symbol from plugin)
 .rela.text.IsNodeInList
                0x0000000000028f08        0x0 BaseDebugPrintErrorLevelLib.obj (symbol from plugin)
 .rela.text.IsNodeAtEnd
                0x0000000000028f08        0x0 BaseDebugPrintErrorLevelLib.obj (symbol from plugin)
 .rela.text.GetNextNode
                0x0000000000028f08        0x0 BaseDebugPrintErrorLevelLib.obj (symbol from plugin)
 .rela.text.InsertTailList
                0x0000000000028f08        0x0 BaseDebugPrintErrorLevelLib.obj (symbol from plugin)
 .rela.text.InsertHeadList
                0x0000000000028f08        0x0 BaseDebugPrintErrorLevelLib.obj (symbol from plugin)
 .rela.text.DebugClearMemory
                0x0000000000028f08        0x0 BaseDebugPrintErrorLevelLib.obj (symbol from plugin)
 .rela.text.DebugPrint
                0x0000000000028f08        0x0 BaseDebugPrintErrorLevelLib.obj (symbol from plugin)
 .rela.text.PeCoffLoaderImageReadFromMemory
                0x0000000000028f08        0x0 BaseDebugPrintErrorLevelLib.obj (symbol from plugin)
 .rela.text.InternalPrintMessage
                0x0000000000028f08        0x0 BaseDebugPrintErrorLevelLib.obj (symbol from plugin)
 .rela.text.PeCoffLoaderGetImageInfo.part.0.lto_priv.75
                0x0000000000028f08        0x0 BaseDebugPrintErrorLevelLib.obj (symbol from plugin)
 .rela.text.InstallPropertiesTable
                0x0000000000028f08        0x0 BaseDebugPrintErrorLevelLib.obj (symbol from plugin)
 .rela.text.CoreGetMemoryMapWithSeparatedImageSection
                0x0000000000028f08        0x0 BaseDebugPrintErrorLevelLib.obj (symbol from plugin)
 .rela.text.InstallMemoryAttributesTable
                0x0000000000028f08        0x0 BaseDebugPrintErrorLevelLib.obj (symbol from plugin)
 .rela.text.SetPropertiesTableSectionAlignment.lto_priv.74
                0x0000000000028f08        0x0 BaseDebugPrintErrorLevelLib.obj (symbol from plugin)
 .rela.data.rel.local.mImagePropertiesPrivateData
                0x0000000000028f08       0x30 BaseDebugPrintErrorLevelLib.obj (symbol from plugin)
 .rela.text.CoreFindFreePagesI.part.0.constprop.34
                0x0000000000028f38        0x0 BaseDebugPrintErrorLevelLib.obj (symbol from plugin)
 .rela.text.BasePrintLibSPrintMarker.constprop.37
                0x0000000000028f38        0x0 BaseDebugPrintErrorLevelLib.obj (symbol from plugin)
 .rela.text.FindFreePages.constprop.31
                0x0000000000028f38        0x0 BaseDebugPrintErrorLevelLib.obj (symbol from plugin)
 .rela.text.CoreAllocatePoolPages.constprop.32
                0x0000000000028f38        0x0 BaseDebugPrintErrorLevelLib.obj (symbol from plugin)
 .rela.text.CoreAllocatePoolPagesI.constprop.30
                0x0000000000028f38        0x0 BaseDebugPrintErrorLevelLib.obj (symbol from plugin)
 .rela.text.CoreNewDebugImageInfoEntry.constprop.24
                0x0000000000028f38        0x0 BaseDebugPrintErrorLevelLib.obj (symbol from plugin)
 .rela.data.rel.local.mGcdMemorySpaceMap
                0x0000000000028f38       0x30 BaseDebugPrintErrorLevelLib.obj (symbol from plugin)
 .rela.data.rel.local.gMemoryMap
                0x0000000000028f68       0x30 BaseDebugPrintErrorLevelLib.obj (symbol from plugin)
 .rela.data.rel.ro.local.mStatusString
                0x0000000000028f98      0x3a8 BaseDebugPrintErrorLevelLib.obj (symbol from plugin)
 .rela.text.MakeTable
                0x0000000000029340        0x0 BaseDebugPrintErrorLevelLib.obj (symbol from plugin)
 .rela.text.ReadPTLen
                0x0000000000029340        0x0 BaseDebugPrintErrorLevelLib.obj (symbol from plugin)
 .rela.text.EfiCreateProtocolNotifyEvent
                0x0000000000029340        0x0 BaseDebugPrintErrorLevelLib.obj (symbol from plugin)
 .rela.text.EfiInitializeFwVolDevicepathNode
                0x0000000000029340        0x0 BaseDebugPrintErrorLevelLib.obj (symbol from plugin)
 .rela.text.EfiGetNameGuidFromFwVolDevicePathNode
                0x0000000000029340        0x0 BaseDebugPrintErrorLevelLib.obj (symbol from plugin)
 .rela.text.GetPerformanceCounter
                0x0000000000029340        0x0 BaseDebugPrintErrorLevelLib.obj (symbol from plugin)
 .rela.text.FwVolBlockReadBlock
                0x0000000000029340        0x0 BaseDebugPrintErrorLevelLib.obj (symbol from plugin)
 .rela.text.FvGetNextFile
                0x0000000000029340        0x0 BaseDebugPrintErrorLevelLib.obj (symbol from plugin)
 .rela.text.FvReadFile
                0x0000000000029340        0x0 BaseDebugPrintErrorLevelLib.obj (symbol from plugin)
 .rela.text.FvReadFileSection
                0x0000000000029340        0x0 BaseDebugPrintErrorLevelLib.obj (symbol from plugin)
 .rela.text.GetFwVolHeader
                0x0000000000029340        0x0 BaseDebugPrintErrorLevelLib.obj (symbol from plugin)
 .rela.text.ProduceFVBProtocolOnBuffer
                0x0000000000029340        0x0 BaseDebugPrintErrorLevelLib.obj (symbol from plugin)
 .rela.text.CoreProcessFirmwareVolume
                0x0000000000029340        0x0 BaseDebugPrintErrorLevelLib.obj (symbol from plugin)
 .rela.text.AdjustMemoryF.part.2.lto_priv.61
                0x0000000000029340        0x0 BaseDebugPrintErrorLevelLib.obj (symbol from plugin)
 .rela.text.UnsetGuardForMemory.part.1.lto_priv.59
                0x0000000000029340        0x0 BaseDebugPrintErrorLevelLib.obj (symbol from plugin)
 .rela.text.CoreConvertPagesWithGuard
                0x0000000000029340        0x0 BaseDebugPrintErrorLevelLib.obj (symbol from plugin)
 .rela.data.rel.local.mFwVolBlock
                0x0000000000029340       0xa8 BaseDebugPrintErrorLevelLib.obj (symbol from plugin)
 .rela.data.rel.local.mStreamRoot
                0x00000000000293e8       0x30 BaseDebugPrintErrorLevelLib.obj (symbol from plugin)
 .rela.text.CoreAllocatePoolI
                0x0000000000029418        0x0 BaseDebugPrintErrorLevelLib.obj (symbol from plugin)
 .rela.text.CoreFreeMemoryMapStack
                0x0000000000029418        0x0 BaseDebugPrintErrorLevelLib.obj (symbol from plugin)
 .rela.text.CoreAddRange
                0x0000000000029418        0x0 BaseDebugPrintErrorLevelLib.obj (symbol from plugin)
 .rela.text.CoreReleaseMemoryLock
                0x0000000000029418        0x0 BaseDebugPrintErrorLevelLib.obj (symbol from plugin)
 .rela.text.CoreAcquireMemoryLock
                0x0000000000029418        0x0 BaseDebugPrintErrorLevelLib.obj (symbol from plugin)
 .rela.text.CoreAddMemoryDescriptor
                0x0000000000029418        0x0 BaseDebugPrintErrorLevelLib.obj (symbol from plugin)
 .rela.text.CoreFreePoolPagesI
                0x0000000000029418        0x0 BaseDebugPrintErrorLevelLib.obj (symbol from plugin)
 .rela.text.CoreFreePoolI
                0x0000000000029418        0x0 BaseDebugPrintErrorLevelLib.obj (symbol from plugin)
 .rela.text.CoreInternalFreePool.part.3.lto_priv.56
                0x0000000000029418        0x0 BaseDebugPrintErrorLevelLib.obj (symbol from plugin)
 .rela.text.CoreFreePool
                0x0000000000029418        0x0 BaseDebugPrintErrorLevelLib.obj (symbol from plugin)
 .rela.text.CoreInternalAllocatePool.part.1.lto_priv.57
                0x0000000000029418        0x0 BaseDebugPrintErrorLevelLib.obj (symbol from plugin)
 .rela.text.CoreAllocatePool
                0x0000000000029418        0x0 BaseDebugPrintErrorLevelLib.obj (symbol from plugin)
 .rela.data.rel.local.mPoolHeadList
                0x0000000000029418       0x30 BaseDebugPrintErrorLevelLib.obj (symbol from plugin)
 .rela.data.rel.local.mFreeMemoryMapEntryList
                0x0000000000029448       0x30 BaseDebugPrintErrorLevelLib.obj (symbol from plugin)
 .rela.text.CoreProtocolsPerHandle
                0x0000000000029478        0x0 BaseDebugPrintErrorLevelLib.obj (symbol from plugin)
 .rela.text.CoreOpenProtocolInformation
                0x0000000000029478        0x0 BaseDebugPrintErrorLevelLib.obj (symbol from plugin)
 .rela.text.CoreInsertGcdMapEntry
                0x0000000000029478        0x0 BaseDebugPrintErrorLevelLib.obj (symbol from plugin)
 .rela.text.CoreAllocateGcdMapEntry
                0x0000000000029478        0x0 BaseDebugPrintErrorLevelLib.obj (symbol from plugin)
 .rela.text.CoreReleaseGcdMemoryLock
                0x0000000000029478        0x0 BaseDebugPrintErrorLevelLib.obj (symbol from plugin)
 .rela.text.CoreAcquireGcdMemoryLock
                0x0000000000029478        0x0 BaseDebugPrintErrorLevelLib.obj (symbol from plugin)
 .rela.text.CoreDumpGcdIoSpaceMap
                0x0000000000029478        0x0 BaseDebugPrintErrorLevelLib.obj (symbol from plugin)
 .rela.text.CoreDumpGcdMemorySpaceMap
                0x0000000000029478        0x0 BaseDebugPrintErrorLevelLib.obj (symbol from plugin)
 .rela.text.CoreConvertSpace
                0x0000000000029478        0x0 BaseDebugPrintErrorLevelLib.obj (symbol from plugin)
 .rela.text.CoreInstallProtocolInterfaceNotify.part.2.lto_priv.50
                0x0000000000029478        0x0 BaseDebugPrintErrorLevelLib.obj (symbol from plugin)
 .rela.data.rel.local.gHandleList
                0x0000000000029478       0x30 BaseDebugPrintErrorLevelLib.obj (symbol from plugin)
 .rela.text.ReportStatusCode
                0x00000000000294a8        0x0 BaseDebugPrintErrorLevelLib.obj (symbol from plugin)
 .rela.text.GetHobList
                0x00000000000294a8        0x0 BaseDebugPrintErrorLevelLib.obj (symbol from plugin)
 .rela.text._ModuleEntryPoint
                0x00000000000294a8        0x0 BaseDebugPrintErrorLevelLib.obj (symbol from plugin)
 .rela.text.CoreReleaseDispatcherLock
                0x00000000000294a8        0x0 BaseDebugPrintErrorLevelLib.obj (symbol from plugin)
 .rela.text.CoreAcquireDispatcherLock
                0x00000000000294a8        0x0 BaseDebugPrintErrorLevelLib.obj (symbol from plugin)
 .rela.text.CoreDispatcher
                0x00000000000294a8        0x0 BaseDebugPrintErrorLevelLib.obj (symbol from plugin)
 .rela.text.CoreTrust
                0x00000000000294a8        0x0 BaseDebugPrintErrorLevelLib.obj (symbol from plugin)
 .rela.text.CoreGetIoSpaceDescriptor
                0x00000000000294a8        0x0 BaseDebugPrintErrorLevelLib.obj (symbol from plugin)
 .rela.text.CoreAllocateIoSpace
                0x00000000000294a8        0x0 BaseDebugPrintErrorLevelLib.obj (symbol from plugin)
 .rela.text.CoreSetMemorySpaceCapabilities
                0x00000000000294a8        0x0 BaseDebugPrintErrorLevelLib.obj (symbol from plugin)
 .rela.text.CoreGetIoSpaceMap.part.7.lto_priv.63
                0x00000000000294a8        0x0 BaseDebugPrintErrorLevelLib.obj (symbol from plugin)
 .rela.text.CoreInitializeGcdServices
                0x00000000000294a8        0x0 BaseDebugPrintErrorLevelLib.obj (symbol from plugin)
 .rela.data.rel.ro.local.mGcdIoTypeNames
                0x00000000000294a8       0x60 BaseDebugPrintErrorLevelLib.obj (symbol from plugin)
 .rela.data.rel.ro.local.mGcdAllocationTypeNames
                0x0000000000029508       0x90 BaseDebugPrintErrorLevelLib.obj (symbol from plugin)
 .rela.data.rel.local.mGcdIoSpaceMap
                0x0000000000029598       0x30 BaseDebugPrintErrorLevelLib.obj (symbol from plugin)
 .rela.text.CoreLocateHandle
                0x00000000000295c8        0x0 BaseDebugPrintErrorLevelLib.obj (symbol from plugin)
 .rela.text.CoreRegisterProtocolNotify
                0x00000000000295c8        0x0 BaseDebugPrintErrorLevelLib.obj (symbol from plugin)
 .rela.text.CoreDisconnectController
                0x00000000000295c8        0x0 BaseDebugPrintErrorLevelLib.obj (symbol from plugin)
 .rela.text.AddSortedDriverBindingProtocol
                0x00000000000295c8        0x0 BaseDebugPrintErrorLevelLib.obj (symbol from plugin)
 .rela.text.CoreConnectController
                0x00000000000295c8        0x0 BaseDebugPrintErrorLevelLib.obj (symbol from plugin)
 .rela.text.CoreRemoveInterfaceFromProtocol
                0x00000000000295c8        0x0 BaseDebugPrintErrorLevelLib.obj (symbol from plugin)
 .rela.text.CoreNotifyProtocolEntry
                0x00000000000295c8        0x0 BaseDebugPrintErrorLevelLib.obj (symbol from plugin)
 .rela.text.CoreReinstallProtocolInterface
                0x00000000000295c8        0x0 BaseDebugPrintErrorLevelLib.obj (symbol from plugin)
 .rela.text.CoreReleaseLock
                0x00000000000295c8        0x0 BaseDebugPrintErrorLevelLib.obj (symbol from plugin)
 .rela.text.CoreAcquireLock
                0x00000000000295c8        0x0 BaseDebugPrintErrorLevelLib.obj (symbol from plugin)
 .rela.text.CoreGetMemoryMap
                0x00000000000295c8        0x0 BaseDebugPrintErrorLevelLib.obj (symbol from plugin)
 .rela.text.CoreAllocatePages
                0x00000000000295c8        0x0 BaseDebugPrintErrorLevelLib.obj (symbol from plugin)
 .rela.text.CoreConvertPagesEx
                0x00000000000295c8        0x0 BaseDebugPrintErrorLevelLib.obj (symbol from plugin)
 .rela.text.CoreFreePages
                0x00000000000295c8        0x0 BaseDebugPrintErrorLevelLib.obj (symbol from plugin)
 .rela.text.CoreFindProtocolEntry
                0x00000000000295c8        0x0 BaseDebugPrintErrorLevelLib.obj (symbol from plugin)
 .rela.text.CoreLocateDevicePath.part.4.lto_priv.73
                0x00000000000295c8        0x0 BaseDebugPrintErrorLevelLib.obj (symbol from plugin)
 .rela.text.CoreInstallMultipleProtocolInterfaces
                0x00000000000295c8        0x0 BaseDebugPrintErrorLevelLib.obj (symbol from plugin)
 .rela.text.CoreLocateProtocol.part.2.lto_priv.52
                0x00000000000295c8        0x0 BaseDebugPrintErrorLevelLib.obj (symbol from plugin)
 .rela.text.ProfileProtocolUnregisterImage
                0x00000000000295c8        0x0 BaseDebugPrintErrorLevelLib.obj (symbol from plugin)
 .rela.text.ProfileProtocolRegisterImage
                0x00000000000295c8        0x0 BaseDebugPrintErrorLevelLib.obj (symbol from plugin)
 .rela.text.CoreUpdateProfileFree
                0x00000000000295c8        0x0 BaseDebugPrintErrorLevelLib.obj (symbol from plugin)
 .rela.text.IsMemoryTypeToGuard
                0x00000000000295c8        0x0 BaseDebugPrintErrorLevelLib.obj (symbol from plugin)
 .rela.text.UnsetGuardPage
                0x00000000000295c8        0x0 BaseDebugPrintErrorLevelLib.obj (symbol from plugin)
 .rela.text.SetGuardPage
                0x00000000000295c8        0x0 BaseDebugPrintErrorLevelLib.obj (symbol from plugin)
 .rela.text.FindGuardedMemoryMap
                0x00000000000295c8        0x0 BaseDebugPrintErrorLevelLib.obj (symbol from plugin)
 .rela.text.CoreUpdateProfile
                0x00000000000295c8        0x0 BaseDebugPrintErrorLevelLib.obj (symbol from plugin)
 .rela.text.GenericProtocolNotify
                0x00000000000295c8        0x0 BaseDebugPrintErrorLevelLib.obj (symbol from plugin)
 .rela.text.CoreNotifyOnProtocolEntryTable
                0x00000000000295c8        0x0 BaseDebugPrintErrorLevelLib.obj (symbol from plugin)
 .rela.text.CoreProcessFvImageFile
                0x00000000000295c8        0x0 BaseDebugPrintErrorLevelLib.obj (symbol from plugin)
 .rela.text.CoreFwVolEventProtocolNotify
                0x00000000000295c8        0x0 BaseDebugPrintErrorLevelLib.obj (symbol from plugin)
 .rela.data.rel.local.mFvHandleList
                0x00000000000295c8       0x30 BaseDebugPrintErrorLevelLib.obj (symbol from plugin)
 .rela.data.rel.local.mScheduledQueue
                0x00000000000295f8       0x30 BaseDebugPrintErrorLevelLib.obj (symbol from plugin)
 .rela.text.OpenSectionStreamEx
                0x0000000000029628        0x0 BaseDebugPrintErrorLevelLib.obj (symbol from plugin)
 .rela.text.NotifyGuidedExtraction
                0x0000000000029628        0x0 BaseDebugPrintErrorLevelLib.obj (symbol from plugin)
 .rela.data.rel.ro.local.mExceptionNameStr
                0x0000000000029628      0x1f8 BaseDebugPrintErrorLevelLib.obj (symbol from plugin)
 .rela.text.CoreUnloadAndCloseImage
                0x0000000000029820        0x0 BaseDebugPrintErrorLevelLib.obj (symbol from plugin)
 .rela.text.CloseSectionStream
                0x0000000000029820        0x0 BaseDebugPrintErrorLevelLib.obj (symbol from plugin)
 .rela.data.rel.ro.local.mMachineTypeInfo
                0x0000000000029820       0x78 BaseDebugPrintErrorLevelLib.obj (symbol from plugin)
 .rela.data.rel.ro.local.mGcdMemoryTypeNames
                0x0000000000029898       0xa8 BaseDebugPrintErrorLevelLib.obj (symbol from plugin)
 .rela.text.CoreSetInterruptState
                0x0000000000029940        0x0 BaseDebugPrintErrorLevelLib.obj (symbol from plugin)
 .rela.text.CoreRestoreTpl
                0x0000000000029940        0x0 BaseDebugPrintErrorLevelLib.obj (symbol from plugin)
 .rela.data.rel.local.mFvDevice
                0x0000000000029940       0xc0 BaseDebugPrintErrorLevelLib.obj (symbol from plugin)
 .rela.text.CoreInstallConfigurationTable
                0x0000000000029a00        0x0 BaseDebugPrintErrorLevelLib.obj (symbol from plugin)
 .rela.text.CoreStartImage
                0x0000000000029a00        0x0 BaseDebugPrintErrorLevelLib.obj (symbol from plugin)
 .rela.text.ReportStatusCodeWithExtendedData.constprop.22
                0x0000000000029a00        0x0 BaseDebugPrintErrorLevelLib.obj (symbol from plugin)
 .rela.text.CalculateEfiHdrCrc
                0x0000000000029a00        0x0 BaseDebugPrintErrorLevelLib.obj (symbol from plugin)
 .rela.text.CoreExitBootServices
                0x0000000000029a00        0x0 BaseDebugPrintErrorLevelLib.obj (symbol from plugin)
 .rela.data.rel.local.gRuntimeTemplate
                0x0000000000029a00       0x60 BaseDebugPrintErrorLevelLib.obj (symbol from plugin)
 .rela.data.rel.local.gRuntime
                0x0000000000029a60       0x18 BaseDebugPrintErrorLevelLib.obj (symbol from plugin)
 .rela.text.ProtectUefiImage
                0x0000000000029a78        0x0 BaseDebugPrintErrorLevelLib.obj (symbol from plugin)
 .rela.data.rel.local.mEfiTimerList
                0x0000000000029a78       0x30 BaseDebugPrintErrorLevelLib.obj (symbol from plugin)
 .rela.data.rel.local.gEventSignalQueue
                0x0000000000029aa8       0x30 BaseDebugPrintErrorLevelLib.obj (symbol from plugin)
 .rela.data.rel.local.mProtocolDatabase
                0x0000000000029ad8       0x30 BaseDebugPrintErrorLevelLib.obj (symbol from plugin)
 .rela.text.MemoryProtectionCpuArchProtocolNotify
                0x0000000000029b08        0x0 BaseDebugPrintErrorLevelLib.obj (symbol from plugin)

.hii
 *(.hii)

.build-id       0x0000000000029b08       0x24
 *(.note.gnu.build-id)
 .note.gnu.build-id
                0x0000000000029b08       0x24 BaseDebugPrintErrorLevelLib.obj (symbol from plugin)

/DISCARD/
 *(.note.GNU-stack)
 *(.gnu_debuglink)
 *(.interp)
 *(.dynsym)
 *(.dynstr)
 *(.dynamic)
 *(.hash .gnu.hash)
 *(.comment)
 *(COMMON)
OUTPUT(/mnt/c/SerranonOS/UEFI/vUDK2017/Build/DuetPkgX64/DEBUG_GCC5/X64/MdeModulePkg/Core/Dxe/DxeMain/DEBUG/DxeCore.dll elf64-x86-64)

.debug_info     0x0000000000000000    0x52a08
 .debug_info    0x0000000000000000     0x9555 /tmp/ccF7NaNG.ltrans0.ltrans.o
 .debug_info    0x0000000000009555     0x597f /tmp/ccF7NaNG.ltrans1.ltrans.o
 .debug_info    0x000000000000eed4     0x2604 /tmp/ccF7NaNG.ltrans2.ltrans.o
 .debug_info    0x00000000000114d8     0x1668 /tmp/ccF7NaNG.ltrans3.ltrans.o
 .debug_info    0x0000000000012b40     0x1a8c /tmp/ccF7NaNG.ltrans4.ltrans.o
 .debug_info    0x00000000000145cc     0x2fde /tmp/ccF7NaNG.ltrans5.ltrans.o
 .debug_info    0x00000000000175aa     0x3031 /tmp/ccF7NaNG.ltrans6.ltrans.o
 .debug_info    0x000000000001a5db     0x2c63 /tmp/ccF7NaNG.ltrans7.ltrans.o
 .debug_info    0x000000000001d23e     0x209d /tmp/ccF7NaNG.ltrans8.ltrans.o
 .debug_info    0x000000000001f2db     0x1d10 /tmp/ccF7NaNG.ltrans9.ltrans.o
 .debug_info    0x0000000000020feb     0x2ae7 /tmp/ccF7NaNG.ltrans10.ltrans.o
 .debug_info    0x0000000000023ad2     0x15bf /tmp/ccF7NaNG.ltrans11.ltrans.o
 .debug_info    0x0000000000025091     0x2614 /tmp/ccF7NaNG.ltrans12.ltrans.o
 .debug_info    0x00000000000276a5     0x2056 /tmp/ccF7NaNG.ltrans13.ltrans.o
 .debug_info    0x00000000000296fb     0x19c9 /tmp/ccF7NaNG.ltrans14.ltrans.o
 .debug_info    0x000000000002b0c4     0x25d4 /tmp/ccF7NaNG.ltrans15.ltrans.o
 .debug_info    0x000000000002d698     0x3eb9 /tmp/ccF7NaNG.ltrans16.ltrans.o
 .debug_info    0x0000000000031551     0x28ec /tmp/ccF7NaNG.ltrans17.ltrans.o
 .debug_info    0x0000000000033e3d     0x4b30 /tmp/ccF7NaNG.ltrans18.ltrans.o
 .debug_info    0x000000000003896d     0x3133 /tmp/ccF7NaNG.ltrans19.ltrans.o
 .debug_info    0x000000000003baa0     0x1079 /tmp/ccF7NaNG.ltrans20.ltrans.o
 .debug_info    0x000000000003cb19     0x20b2 /tmp/ccF7NaNG.ltrans21.ltrans.o
 .debug_info    0x000000000003ebcb     0x2e6f /tmp/ccF7NaNG.ltrans22.ltrans.o
 .debug_info    0x0000000000041a3a     0x4a01 /tmp/ccF7NaNG.ltrans23.ltrans.o
 .debug_info    0x000000000004643b     0x2c90 /tmp/ccF7NaNG.ltrans24.ltrans.o
 .debug_info    0x00000000000490cb     0x39ae /tmp/ccF7NaNG.ltrans25.ltrans.o
 .debug_info    0x000000000004ca79     0x191a /tmp/ccF7NaNG.ltrans26.ltrans.o
 .debug_info    0x000000000004e393     0x2abe /tmp/ccF7NaNG.ltrans27.ltrans.o
 .debug_info    0x0000000000050e51      0xaa7 /tmp/ccF7NaNG.ltrans28.ltrans.o
 .debug_info    0x00000000000518f8     0x1110 /tmp/ccF7NaNG.ltrans29.ltrans.o

.debug_abbrev   0x0000000000000000     0x6d9b
 .debug_abbrev  0x0000000000000000      0x4cc /tmp/ccF7NaNG.ltrans0.ltrans.o
 .debug_abbrev  0x00000000000004cc      0x352 /tmp/ccF7NaNG.ltrans1.ltrans.o
 .debug_abbrev  0x000000000000081e      0x47c /tmp/ccF7NaNG.ltrans2.ltrans.o
 .debug_abbrev  0x0000000000000c9a      0x33c /tmp/ccF7NaNG.ltrans3.ltrans.o
 .debug_abbrev  0x0000000000000fd6      0x325 /tmp/ccF7NaNG.ltrans4.ltrans.o
 .debug_abbrev  0x00000000000012fb      0x30b /tmp/ccF7NaNG.ltrans5.ltrans.o
 .debug_abbrev  0x0000000000001606      0x526 /tmp/ccF7NaNG.ltrans6.ltrans.o
 .debug_abbrev  0x0000000000001b2c      0x434 /tmp/ccF7NaNG.ltrans7.ltrans.o
 .debug_abbrev  0x0000000000001f60      0x3c4 /tmp/ccF7NaNG.ltrans8.ltrans.o
 .debug_abbrev  0x0000000000002324      0x3c2 /tmp/ccF7NaNG.ltrans9.ltrans.o
 .debug_abbrev  0x00000000000026e6      0x438 /tmp/ccF7NaNG.ltrans10.ltrans.o
 .debug_abbrev  0x0000000000002b1e      0x325 /tmp/ccF7NaNG.ltrans11.ltrans.o
 .debug_abbrev  0x0000000000002e43      0x391 /tmp/ccF7NaNG.ltrans12.ltrans.o
 .debug_abbrev  0x00000000000031d4      0x397 /tmp/ccF7NaNG.ltrans13.ltrans.o
 .debug_abbrev  0x000000000000356b      0x2b4 /tmp/ccF7NaNG.ltrans14.ltrans.o
 .debug_abbrev  0x000000000000381f      0x3e2 /tmp/ccF7NaNG.ltrans15.ltrans.o
 .debug_abbrev  0x0000000000003c01      0x435 /tmp/ccF7NaNG.ltrans16.ltrans.o
 .debug_abbrev  0x0000000000004036      0x3a6 /tmp/ccF7NaNG.ltrans17.ltrans.o
 .debug_abbrev  0x00000000000043dc      0x4a4 /tmp/ccF7NaNG.ltrans18.ltrans.o
 .debug_abbrev  0x0000000000004880      0x408 /tmp/ccF7NaNG.ltrans19.ltrans.o
 .debug_abbrev  0x0000000000004c88      0x260 /tmp/ccF7NaNG.ltrans20.ltrans.o
 .debug_abbrev  0x0000000000004ee8      0x3c2 /tmp/ccF7NaNG.ltrans21.ltrans.o
 .debug_abbrev  0x00000000000052aa      0x3ce /tmp/ccF7NaNG.ltrans22.ltrans.o
 .debug_abbrev  0x0000000000005678      0x45e /tmp/ccF7NaNG.ltrans23.ltrans.o
 .debug_abbrev  0x0000000000005ad6      0x3c7 /tmp/ccF7NaNG.ltrans24.ltrans.o
 .debug_abbrev  0x0000000000005e9d      0x3f1 /tmp/ccF7NaNG.ltrans25.ltrans.o
 .debug_abbrev  0x000000000000628e      0x3a7 /tmp/ccF7NaNG.ltrans26.ltrans.o
 .debug_abbrev  0x0000000000006635      0x394 /tmp/ccF7NaNG.ltrans27.ltrans.o
 .debug_abbrev  0x00000000000069c9      0x1dd /tmp/ccF7NaNG.ltrans28.ltrans.o
 .debug_abbrev  0x0000000000006ba6      0x1f5 /tmp/ccF7NaNG.ltrans29.ltrans.o

.debug_loc      0x0000000000000000    0x2e59e
 .debug_loc     0x0000000000000000     0x1da9 /tmp/ccF7NaNG.ltrans0.ltrans.o
 .debug_loc     0x0000000000001da9     0x2f8e /tmp/ccF7NaNG.ltrans1.ltrans.o
 .debug_loc     0x0000000000004d37     0x21b6 /tmp/ccF7NaNG.ltrans2.ltrans.o
 .debug_loc     0x0000000000006eed     0x1173 /tmp/ccF7NaNG.ltrans3.ltrans.o
 .debug_loc     0x0000000000008060     0x1639 /tmp/ccF7NaNG.ltrans4.ltrans.o
 .debug_loc     0x0000000000009699     0x2660 /tmp/ccF7NaNG.ltrans5.ltrans.o
 .debug_loc     0x000000000000bcf9     0x1a8c /tmp/ccF7NaNG.ltrans6.ltrans.o
 .debug_loc     0x000000000000d785     0x2c12 /tmp/ccF7NaNG.ltrans7.ltrans.o
 .debug_loc     0x0000000000010397     0x194e /tmp/ccF7NaNG.ltrans8.ltrans.o
 .debug_loc     0x0000000000011ce5     0x1aca /tmp/ccF7NaNG.ltrans9.ltrans.o
 .debug_loc     0x00000000000137af     0x2bc0 /tmp/ccF7NaNG.ltrans10.ltrans.o
 .debug_loc     0x000000000001636f      0x755 /tmp/ccF7NaNG.ltrans11.ltrans.o
 .debug_loc     0x0000000000016ac4     0x1de4 /tmp/ccF7NaNG.ltrans12.ltrans.o
 .debug_loc     0x00000000000188a8     0x2311 /tmp/ccF7NaNG.ltrans13.ltrans.o
 .debug_loc     0x000000000001abb9     0x1741 /tmp/ccF7NaNG.ltrans14.ltrans.o
 .debug_loc     0x000000000001c2fa     0x30b6 /tmp/ccF7NaNG.ltrans15.ltrans.o
 .debug_loc     0x000000000001f3b0     0x2306 /tmp/ccF7NaNG.ltrans16.ltrans.o
 .debug_loc     0x00000000000216b6     0x100e /tmp/ccF7NaNG.ltrans17.ltrans.o
 .debug_loc     0x00000000000226c4     0x1202 /tmp/ccF7NaNG.ltrans18.ltrans.o
 .debug_loc     0x00000000000238c6      0xe48 /tmp/ccF7NaNG.ltrans19.ltrans.o
 .debug_loc     0x000000000002470e     0x148b /tmp/ccF7NaNG.ltrans20.ltrans.o
 .debug_loc     0x0000000000025b99     0x1785 /tmp/ccF7NaNG.ltrans21.ltrans.o
 .debug_loc     0x000000000002731e     0x11c4 /tmp/ccF7NaNG.ltrans22.ltrans.o
 .debug_loc     0x00000000000284e2     0x154e /tmp/ccF7NaNG.ltrans23.ltrans.o
 .debug_loc     0x0000000000029a30      0x922 /tmp/ccF7NaNG.ltrans24.ltrans.o
 .debug_loc     0x000000000002a352     0x1c9a /tmp/ccF7NaNG.ltrans25.ltrans.o
 .debug_loc     0x000000000002bfec     0x14eb /tmp/ccF7NaNG.ltrans26.ltrans.o
 .debug_loc     0x000000000002d4d7      0xb77 /tmp/ccF7NaNG.ltrans27.ltrans.o
 .debug_loc     0x000000000002e04e      0x314 /tmp/ccF7NaNG.ltrans28.ltrans.o
 .debug_loc     0x000000000002e362      0x23c /tmp/ccF7NaNG.ltrans29.ltrans.o

.debug_aranges  0x0000000000000000     0x1960
 .debug_aranges
                0x0000000000000000       0x30 /tmp/ccF7NaNG.ltrans0.ltrans.o
 .debug_aranges
                0x0000000000000030       0x30 /tmp/ccF7NaNG.ltrans1.ltrans.o
 .debug_aranges
                0x0000000000000060      0x270 /tmp/ccF7NaNG.ltrans2.ltrans.o
 .debug_aranges
                0x00000000000002d0       0x60 /tmp/ccF7NaNG.ltrans3.ltrans.o
 .debug_aranges
                0x0000000000000330       0x80 /tmp/ccF7NaNG.ltrans4.ltrans.o
 .debug_aranges
                0x00000000000003b0       0xa0 /tmp/ccF7NaNG.ltrans5.ltrans.o
 .debug_aranges
                0x0000000000000450      0x180 /tmp/ccF7NaNG.ltrans6.ltrans.o
 .debug_aranges
                0x00000000000005d0      0x1a0 /tmp/ccF7NaNG.ltrans7.ltrans.o
 .debug_aranges
                0x0000000000000770      0x100 /tmp/ccF7NaNG.ltrans8.ltrans.o
 .debug_aranges
                0x0000000000000870      0x110 /tmp/ccF7NaNG.ltrans9.ltrans.o
 .debug_aranges
                0x0000000000000980      0x2c0 /tmp/ccF7NaNG.ltrans10.ltrans.o
 .debug_aranges
                0x0000000000000c40       0x80 /tmp/ccF7NaNG.ltrans11.ltrans.o
 .debug_aranges
                0x0000000000000cc0      0x130 /tmp/ccF7NaNG.ltrans12.ltrans.o
 .debug_aranges
                0x0000000000000df0       0xc0 /tmp/ccF7NaNG.ltrans13.ltrans.o
 .debug_aranges
                0x0000000000000eb0       0x70 /tmp/ccF7NaNG.ltrans14.ltrans.o
 .debug_aranges
                0x0000000000000f20      0x1a0 /tmp/ccF7NaNG.ltrans15.ltrans.o
 .debug_aranges
                0x00000000000010c0      0x120 /tmp/ccF7NaNG.ltrans16.ltrans.o
 .debug_aranges
                0x00000000000011e0       0x60 /tmp/ccF7NaNG.ltrans17.ltrans.o
 .debug_aranges
                0x0000000000001240       0x80 /tmp/ccF7NaNG.ltrans18.ltrans.o
 .debug_aranges
                0x00000000000012c0       0x90 /tmp/ccF7NaNG.ltrans19.ltrans.o
 .debug_aranges
                0x0000000000001350       0x70 /tmp/ccF7NaNG.ltrans20.ltrans.o
 .debug_aranges
                0x00000000000013c0       0x60 /tmp/ccF7NaNG.ltrans21.ltrans.o
 .debug_aranges
                0x0000000000001420       0xf0 /tmp/ccF7NaNG.ltrans22.ltrans.o
 .debug_aranges
                0x0000000000001510       0xe0 /tmp/ccF7NaNG.ltrans23.ltrans.o
 .debug_aranges
                0x00000000000015f0       0x60 /tmp/ccF7NaNG.ltrans24.ltrans.o
 .debug_aranges
                0x0000000000001650       0xe0 /tmp/ccF7NaNG.ltrans25.ltrans.o
 .debug_aranges
                0x0000000000001730      0x130 /tmp/ccF7NaNG.ltrans26.ltrans.o
 .debug_aranges
                0x0000000000001860       0x80 /tmp/ccF7NaNG.ltrans27.ltrans.o
 .debug_aranges
                0x00000000000018e0       0x50 /tmp/ccF7NaNG.ltrans28.ltrans.o
 .debug_aranges
                0x0000000000001930       0x30 /tmp/ccF7NaNG.ltrans29.ltrans.o

.debug_ranges   0x0000000000000000     0x5520
 .debug_ranges  0x0000000000000000      0x4e0 /tmp/ccF7NaNG.ltrans0.ltrans.o
 .debug_ranges  0x00000000000004e0      0x980 /tmp/ccF7NaNG.ltrans1.ltrans.o
 .debug_ranges  0x0000000000000e60      0x400 /tmp/ccF7NaNG.ltrans2.ltrans.o
 .debug_ranges  0x0000000000001260      0x1b0 /tmp/ccF7NaNG.ltrans3.ltrans.o
 .debug_ranges  0x0000000000001410      0x3b0 /tmp/ccF7NaNG.ltrans4.ltrans.o
 .debug_ranges  0x00000000000017c0      0x1a0 /tmp/ccF7NaNG.ltrans5.ltrans.o
 .debug_ranges  0x0000000000001960      0x2f0 /tmp/ccF7NaNG.ltrans6.ltrans.o
 .debug_ranges  0x0000000000001c50      0x3a0 /tmp/ccF7NaNG.ltrans7.ltrans.o
 .debug_ranges  0x0000000000001ff0      0x2e0 /tmp/ccF7NaNG.ltrans8.ltrans.o
 .debug_ranges  0x00000000000022d0      0x340 /tmp/ccF7NaNG.ltrans9.ltrans.o
 .debug_ranges  0x0000000000002610      0x440 /tmp/ccF7NaNG.ltrans10.ltrans.o
 .debug_ranges  0x0000000000002a50      0x2f0 /tmp/ccF7NaNG.ltrans11.ltrans.o
 .debug_ranges  0x0000000000002d40      0x300 /tmp/ccF7NaNG.ltrans12.ltrans.o
 .debug_ranges  0x0000000000003040      0x280 /tmp/ccF7NaNG.ltrans13.ltrans.o
 .debug_ranges  0x00000000000032c0      0x390 /tmp/ccF7NaNG.ltrans14.ltrans.o
 .debug_ranges  0x0000000000003650      0x3d0 /tmp/ccF7NaNG.ltrans15.ltrans.o
 .debug_ranges  0x0000000000003a20      0x450 /tmp/ccF7NaNG.ltrans16.ltrans.o
 .debug_ranges  0x0000000000003e70      0x200 /tmp/ccF7NaNG.ltrans17.ltrans.o
 .debug_ranges  0x0000000000004070      0x220 /tmp/ccF7NaNG.ltrans18.ltrans.o
 .debug_ranges  0x0000000000004290      0x1d0 /tmp/ccF7NaNG.ltrans19.ltrans.o
 .debug_ranges  0x0000000000004460      0x140 /tmp/ccF7NaNG.ltrans20.ltrans.o
 .debug_ranges  0x00000000000045a0      0x390 /tmp/ccF7NaNG.ltrans21.ltrans.o
 .debug_ranges  0x0000000000004930      0x1b0 /tmp/ccF7NaNG.ltrans22.ltrans.o
 .debug_ranges  0x0000000000004ae0      0x3a0 /tmp/ccF7NaNG.ltrans23.ltrans.o
 .debug_ranges  0x0000000000004e80      0x160 /tmp/ccF7NaNG.ltrans24.ltrans.o
 .debug_ranges  0x0000000000004fe0      0x180 /tmp/ccF7NaNG.ltrans25.ltrans.o
 .debug_ranges  0x0000000000005160      0x280 /tmp/ccF7NaNG.ltrans26.ltrans.o
 .debug_ranges  0x00000000000053e0       0xe0 /tmp/ccF7NaNG.ltrans27.ltrans.o
 .debug_ranges  0x00000000000054c0       0x40 /tmp/ccF7NaNG.ltrans28.ltrans.o
 .debug_ranges  0x0000000000005500       0x20 /tmp/ccF7NaNG.ltrans29.ltrans.o

.debug_line     0x0000000000000000     0xfc59
 .debug_line    0x0000000000000000     0x157c /tmp/ccF7NaNG.ltrans0.ltrans.o
 .debug_line    0x000000000000157c      0xe10 /tmp/ccF7NaNG.ltrans1.ltrans.o
 .debug_line    0x000000000000238c      0xb4e /tmp/ccF7NaNG.ltrans2.ltrans.o
 .debug_line    0x0000000000002eda      0x732 /tmp/ccF7NaNG.ltrans3.ltrans.o
 .debug_line    0x000000000000360c      0x5dc /tmp/ccF7NaNG.ltrans4.ltrans.o
 .debug_line    0x0000000000003be8      0x995 /tmp/ccF7NaNG.ltrans5.ltrans.o
 .debug_line    0x000000000000457d      0xdfc /tmp/ccF7NaNG.ltrans6.ltrans.o
 .debug_line    0x0000000000005379      0x99f /tmp/ccF7NaNG.ltrans7.ltrans.o
 .debug_line    0x0000000000005d18      0x6a6 /tmp/ccF7NaNG.ltrans8.ltrans.o
 .debug_line    0x00000000000063be      0x672 /tmp/ccF7NaNG.ltrans9.ltrans.o
 .debug_line    0x0000000000006a30      0xd4b /tmp/ccF7NaNG.ltrans10.ltrans.o
 .debug_line    0x000000000000777b      0x6ad /tmp/ccF7NaNG.ltrans11.ltrans.o
 .debug_line    0x0000000000007e28      0x720 /tmp/ccF7NaNG.ltrans12.ltrans.o
 .debug_line    0x0000000000008548      0x784 /tmp/ccF7NaNG.ltrans13.ltrans.o
 .debug_line    0x0000000000008ccc      0x599 /tmp/ccF7NaNG.ltrans14.ltrans.o
 .debug_line    0x0000000000009265      0x7ec /tmp/ccF7NaNG.ltrans15.ltrans.o
 .debug_line    0x0000000000009a51      0x849 /tmp/ccF7NaNG.ltrans16.ltrans.o
 .debug_line    0x000000000000a29a      0x886 /tmp/ccF7NaNG.ltrans17.ltrans.o
 .debug_line    0x000000000000ab20      0x8e2 /tmp/ccF7NaNG.ltrans18.ltrans.o
 .debug_line    0x000000000000b402      0x805 /tmp/ccF7NaNG.ltrans19.ltrans.o
 .debug_line    0x000000000000bc07      0x3ce /tmp/ccF7NaNG.ltrans20.ltrans.o
 .debug_line    0x000000000000bfd5      0x704 /tmp/ccF7NaNG.ltrans21.ltrans.o
 .debug_line    0x000000000000c6d9      0x8e6 /tmp/ccF7NaNG.ltrans22.ltrans.o
 .debug_line    0x000000000000cfbf      0xaae /tmp/ccF7NaNG.ltrans23.ltrans.o
 .debug_line    0x000000000000da6d      0x507 /tmp/ccF7NaNG.ltrans24.ltrans.o
 .debug_line    0x000000000000df74      0x879 /tmp/ccF7NaNG.ltrans25.ltrans.o
 .debug_line    0x000000000000e7ed      0x763 /tmp/ccF7NaNG.ltrans26.ltrans.o
 .debug_line    0x000000000000ef50      0x63d /tmp/ccF7NaNG.ltrans27.ltrans.o
 .debug_line    0x000000000000f58d      0x396 /tmp/ccF7NaNG.ltrans28.ltrans.o
 .debug_line    0x000000000000f923      0x336 /tmp/ccF7NaNG.ltrans29.ltrans.o

.debug_str      0x0000000000000000     0xc0af
 .debug_str     0x0000000000000000     0x45e1 /tmp/ccF7NaNG.ltrans0.ltrans.o
                                       0x50f1 (size before relaxing)
 .debug_str     0x00000000000045e1      0xb4a /tmp/ccF7NaNG.ltrans1.ltrans.o
                                       0x2c7a (size before relaxing)
 .debug_str     0x000000000000512b      0x694 /tmp/ccF7NaNG.ltrans2.ltrans.o
                                        0xb36 (size before relaxing)
 .debug_str     0x00000000000057bf      0x3d2 /tmp/ccF7NaNG.ltrans3.ltrans.o
                                        0xe6d (size before relaxing)
 .debug_str     0x0000000000005b91      0x5e7 /tmp/ccF7NaNG.ltrans4.ltrans.o
                                        0xb22 (size before relaxing)
 .debug_str     0x0000000000006178      0x7f0 /tmp/ccF7NaNG.ltrans5.ltrans.o
                                       0x1f38 (size before relaxing)
 .debug_str     0x0000000000006968      0x81c /tmp/ccF7NaNG.ltrans6.ltrans.o
                                       0x18d3 (size before relaxing)
 .debug_str     0x0000000000007184      0xa7b /tmp/ccF7NaNG.ltrans7.ltrans.o
                                       0x135e (size before relaxing)
 .debug_str     0x0000000000007bff      0x483 /tmp/ccF7NaNG.ltrans8.ltrans.o
                                        0xa7c (size before relaxing)
 .debug_str     0x0000000000008082      0x3a9 /tmp/ccF7NaNG.ltrans9.ltrans.o
                                        0xb33 (size before relaxing)
 .debug_str     0x000000000000842b      0x47d /tmp/ccF7NaNG.ltrans10.ltrans.o
                                       0x102c (size before relaxing)
 .debug_str     0x00000000000088a8      0x1cf /tmp/ccF7NaNG.ltrans11.ltrans.o
                                        0x987 (size before relaxing)
 .debug_str     0x0000000000008a77      0x431 /tmp/ccF7NaNG.ltrans12.ltrans.o
                                       0x10cf (size before relaxing)
 .debug_str     0x0000000000008ea8      0x6cc /tmp/ccF7NaNG.ltrans13.ltrans.o
                                        0xd8d (size before relaxing)
 .debug_str     0x0000000000009574      0x1c8 /tmp/ccF7NaNG.ltrans14.ltrans.o
                                        0x9f5 (size before relaxing)
 .debug_str     0x000000000000973c      0x3cf /tmp/ccF7NaNG.ltrans15.ltrans.o
                                        0xae1 (size before relaxing)
 .debug_str     0x0000000000009b0b      0x3fd /tmp/ccF7NaNG.ltrans16.ltrans.o
                                       0x2119 (size before relaxing)
 .debug_str     0x0000000000009f08      0x2f5 /tmp/ccF7NaNG.ltrans17.ltrans.o
                                       0x13e9 (size before relaxing)
 .debug_str     0x000000000000a1fd      0x3e0 /tmp/ccF7NaNG.ltrans18.ltrans.o
                                       0x23f9 (size before relaxing)
 .debug_str     0x000000000000a5dd      0x335 /tmp/ccF7NaNG.ltrans19.ltrans.o
                                       0x1e21 (size before relaxing)
 .debug_str     0x000000000000a912       0xfd /tmp/ccF7NaNG.ltrans20.ltrans.o
                                        0x6e2 (size before relaxing)
 .debug_str     0x000000000000aa0f      0x23c /tmp/ccF7NaNG.ltrans21.ltrans.o
                                        0xea8 (size before relaxing)
 .debug_str     0x000000000000ac4b      0x256 /tmp/ccF7NaNG.ltrans22.ltrans.o
                                       0x1cd3 (size before relaxing)
 .debug_str     0x000000000000aea1      0x763 /tmp/ccF7NaNG.ltrans23.ltrans.o
                                       0x23a1 (size before relaxing)
 .debug_str     0x000000000000b604      0x1d3 /tmp/ccF7NaNG.ltrans24.ltrans.o
                                       0x1e58 (size before relaxing)
 .debug_str     0x000000000000b7d7      0x26a /tmp/ccF7NaNG.ltrans25.ltrans.o
                                       0x22db (size before relaxing)
 .debug_str     0x000000000000ba41      0x312 /tmp/ccF7NaNG.ltrans26.ltrans.o
                                        0xa8b (size before relaxing)
 .debug_str     0x000000000000bd53      0x213 /tmp/ccF7NaNG.ltrans27.ltrans.o
                                       0x1a3a (size before relaxing)
 .debug_str     0x000000000000bf66       0x86 /tmp/ccF7NaNG.ltrans28.ltrans.o
                                        0x6a3 (size before relaxing)
 .debug_str     0x000000000000bfec       0xc3 /tmp/ccF7NaNG.ltrans29.ltrans.o
                                        0xdee (size before relaxing)

.debug_frame    0x0000000000000000     0x7918
 .debug_frame   0x0000000000000000       0x78 /tmp/ccF7NaNG.ltrans0.ltrans.o
 .debug_frame   0x0000000000000078      0x500 /tmp/ccF7NaNG.ltrans1.ltrans.o
 .debug_frame   0x0000000000000578      0x718 /tmp/ccF7NaNG.ltrans2.ltrans.o
 .debug_frame   0x0000000000000c90      0x180 /tmp/ccF7NaNG.ltrans3.ltrans.o
 .debug_frame   0x0000000000000e10      0x310 /tmp/ccF7NaNG.ltrans4.ltrans.o
 .debug_frame   0x0000000000001120      0x3c0 /tmp/ccF7NaNG.ltrans5.ltrans.o
 .debug_frame   0x00000000000014e0      0x530 /tmp/ccF7NaNG.ltrans6.ltrans.o
 .debug_frame   0x0000000000001a10      0x730 /tmp/ccF7NaNG.ltrans7.ltrans.o
 .debug_frame   0x0000000000002140      0x628 /tmp/ccF7NaNG.ltrans8.ltrans.o
 .debug_frame   0x0000000000002768      0x558 /tmp/ccF7NaNG.ltrans9.ltrans.o
 .debug_frame   0x0000000000002cc0      0x8d8 /tmp/ccF7NaNG.ltrans10.ltrans.o
 .debug_frame   0x0000000000003598      0x200 /tmp/ccF7NaNG.ltrans11.ltrans.o
 .debug_frame   0x0000000000003798      0x6a8 /tmp/ccF7NaNG.ltrans12.ltrans.o
 .debug_frame   0x0000000000003e40      0x410 /tmp/ccF7NaNG.ltrans13.ltrans.o
 .debug_frame   0x0000000000004250      0x2c8 /tmp/ccF7NaNG.ltrans14.ltrans.o
 .debug_frame   0x0000000000004518      0x7d0 /tmp/ccF7NaNG.ltrans15.ltrans.o
 .debug_frame   0x0000000000004ce8      0x5f0 /tmp/ccF7NaNG.ltrans16.ltrans.o
 .debug_frame   0x00000000000052d8      0x310 /tmp/ccF7NaNG.ltrans17.ltrans.o
 .debug_frame   0x00000000000055e8      0x388 /tmp/ccF7NaNG.ltrans18.ltrans.o
 .debug_frame   0x0000000000005970      0x330 /tmp/ccF7NaNG.ltrans19.ltrans.o
 .debug_frame   0x0000000000005ca0      0x2e8 /tmp/ccF7NaNG.ltrans20.ltrans.o
 .debug_frame   0x0000000000005f88      0x1d0 /tmp/ccF7NaNG.ltrans21.ltrans.o
 .debug_frame   0x0000000000006158      0x470 /tmp/ccF7NaNG.ltrans22.ltrans.o
 .debug_frame   0x00000000000065c8      0x310 /tmp/ccF7NaNG.ltrans23.ltrans.o
 .debug_frame   0x00000000000068d8      0x280 /tmp/ccF7NaNG.ltrans24.ltrans.o
 .debug_frame   0x0000000000006b58      0x4a0 /tmp/ccF7NaNG.ltrans25.ltrans.o
 .debug_frame   0x0000000000006ff8      0x538 /tmp/ccF7NaNG.ltrans26.ltrans.o
 .debug_frame   0x0000000000007530      0x220 /tmp/ccF7NaNG.ltrans27.ltrans.o
 .debug_frame   0x0000000000007750      0x158 /tmp/ccF7NaNG.ltrans28.ltrans.o
 .debug_frame   0x00000000000078a8       0x70 /tmp/ccF7NaNG.ltrans29.ltrans.o
